******************************************************************************
               TMS320C6x Linker PC v8.2.1                      
******************************************************************************
>> Linked Mon Sep 25 10:07:53 2017

OUTPUT FILE NAME:   <ndkTest.out>
ENTRY POINT SYMBOL: "_c_int00"  address: c004aa60


MEMORY CONFIGURATION

         name            origin    length      used     unused   attr    fill
----------------------  --------  ---------  --------  --------  ----  --------
  IROM                  11700000   00100000  00000000  00100000  R  X
  IRAM                  11800000   00040000  00000000  00040000  RW X
  L3_CBA_RAM            80000000   00020000  00000000  00020000  RW X
  DDR                   c0000000   08000000  000ce264  07f31d9c  RWIX


SEGMENT ALLOCATION MAP

run origin  load origin   length   init length attrs members
----------  ----------- ---------- ----------- ----- -------
c0000000    c0000000    00053ba0   00053ba0    r-x
  c0000000    c0000000    00053ba0   00053ba0    r-x .text
c0053ba0    c0053ba0    00000060   00000000    rw-
  c0053ba0    c0053ba0    00000060   00000000    rw- .far.1
c0053c00    c0053c00    0006e1d0   00000000    rw-
  c0053c00    c0053c00    00052b00   00000000    rw- .far:NDK_PACKETMEM
  c00a6700    c00a6700    000136cc   00000000    rw- .far.2
  c00b9dd0    c00b9dd0    00008000   00000000    rw- systemHeap
c00c1dd0    c00c1dd0    00003f00   00003f00    r--
  c00c1dd0    c00c1dd0    00003f00   00003f00    r-- .const
c00c5cd0    c00c5cd0    00006e08   00000000    rw-
  c00c5cd0    c00c5cd0    00003c00   00000000    rw- .far:taskStackSection
  c00c98d0    c00c98d0    00001204   00000000    rw- .fardata
  c00caad8    c00caad8    00001000   00000000    rw- .far:NDK_OBJMEM
  c00cbad8    c00cbad8    00001000   00000000    rw- .stack
c00ccad8    c00ccad8    000003b8   000003b8    r--
  c00ccad8    c00ccad8    000003b8   000003b8    r-- .switch
c00cce90    c00cce90    00000214   00000000    rw-
  c00cce90    c00cce90    00000060   00000000    rw- .bss
  c00ccef0    c00ccef0    000001b4   00000000    rw- .neardata
c00cd0a4    c00cd0a4    00000024   00000000    r--
  c00cd0a4    c00cd0a4    00000024   00000000    r-- .rodata
c00cd100    c00cd100    000002b8   00000000    rw-
  c00cd100    c00cd100    00000194   00000000    rw- emacComm
  c00cd298    c00cd298    00000120   00000000    rw- .cio
c00cd400    c00cd400    00000ef0   00000ef0    r-x
  c00cd400    c00cd400    00000200   00000200    r-x .vecs
  c00cd600    c00cd600    00000cf0   00000cf0    r-- .cinit


SECTION ALLOCATION MAP

 output                                  attributes/
section   page    origin      length       input sections
--------  ----  ----------  ----------   ----------------
.stack     0    c00cbad8    00001000     UNINITIALIZED
                  c00cbad8    00000008     boot.ae674 : boot.oe674 (.stack)
                  c00cbae0    00000ff8     --HOLE--

.bss       0    c00cce90    00000060     UNINITIALIZED
                  c00cce90    00000018     hal_timer_bios.lib : lltimer_bios6.oe674 (.bss)
                  c00ccea8    00000014     stack.lib : igmp.oe674 (.bss)
                  c00ccebc    00000008     netctrl.lib : netctrl.oe674 (.bss)
                  c00ccec4    00000008     nettool.lib : daemon.oe674 (.bss)
                  c00ccecc    00000008     stack.lib : ip.oe674 (.bss)
                  c00cced4    00000008               : nimupppoe.oe674 (.bss)
                  c00ccedc    00000004     nettool.lib : ipaddr.oe674 (.bss)
                  c00ccee0    00000004     stack.lib : ipv6_frag.oe674 (.bss)
                  c00ccee4    00000004               : lli6.oe674 (.bss)
                  c00ccee8    00000004               : rtable.oe674 (.bss)
                  c00cceec    00000004     (.common:coreNum$0)

.neardata 
*          0    c00ccef0    000001b4     UNINITIALIZED
                  c00ccef0    00000044     nettool.lib : httpstr.oe674 (.neardata)
                  c00ccf34    00000024     os.lib : mem_bios6.oe674 (.neardata)
                  c00ccf58    00000020     main.obj (.neardata)
                  c00ccf78    0000001c     os.lib : task_bios6.oe674 (.neardata)
                  c00ccf94    00000018     netctrl.lib : netctrl.oe674 (.neardata)
                  c00ccfac    00000014     stack.lib : rtable.oe674 (.neardata)
                  c00ccfc0    00000010     nettool.lib : daemon.oe674 (.neardata)
                  c00ccfd0    00000010     stack.lib : bind6.oe674 (.neardata)
                  c00ccfe0    00000010               : igmp.oe674 (.neardata)
                  c00ccff0    0000000c               : route6.oe674 (.neardata)
                  c00ccffc    00000008     miniPrintf.lib : miniPrintf.oe674 (.neardata)
                  c00cd004    00000008     os.lib : ossys.oe674 (.neardata)
                  c00cd00c    00000008     stack.lib : exec.oe674 (.neardata)
                  c00cd014    00000008               : icmp.oe674 (.neardata)
                  c00cd01c    00000008               : ip.oe674 (.neardata)
                  c00cd024    00000008               : ipin.oe674 (.neardata)
                  c00cd02c    00000008               : ipv6_frag.oe674 (.neardata)
                  c00cd034    00000008               : lli.oe674 (.neardata)
                  c00cd03c    00000008               : nimupppoe.oe674 (.neardata)
                  c00cd044    00000008               : rtc.oe674 (.neardata)
                  c00cd04c    00000008               : tcp.oe674 (.neardata)
                  c00cd054    00000008               : tcp6.oe674 (.neardata)
                  c00cd05c    00000008               : timer.oe674 (.neardata)
                  c00cd064    00000004     hal_timer_bios.lib : lltimer_bios6.oe674 (.neardata)
                  c00cd068    00000004     netctrl.lib : netsrv.oe674 (.neardata)
                  c00cd06c    00000004     nettool.lib : config.oe674 (.neardata)
                  c00cd070    00000004                 : httpsend.oe674 (.neardata)
                  c00cd074    00000004     os.lib : efs.oe674 (.neardata)
                  c00cd078    00000004            : pbm.oe674 (.neardata)
                  c00cd07c    00000004     stack.lib : bind.oe674 (.neardata)
                  c00cd080    00000004               : ipfrag.oe674 (.neardata)
                  c00cd084    00000004               : lli6.oe674 (.neardata)
                  c00cd088    00000004               : mld.oe674 (.neardata)
                  c00cd08c    00000004               : node.oe674 (.neardata)
                  c00cd090    00000004               : sock6pcb.oe674 (.neardata)
                  c00cd094    00000004               : sockpcb.oe674 (.neardata)
                  c00cd098    00000004     ti.drv.emac.ae674 : emac_drv_v0.oe674 (.neardata)
                  c00cd09c    00000004     ti.drv.uart.ae674 : UART_drv.oe674 (.neardata)
                  c00cd0a0    00000004     ti.transport.ndk.nimu.ae674 : nimu_eth.oe674 (.neardata)

.rodata    0    c00cd0a4    00000024     UNINITIALIZED
                  c00cd0a4    00000024     stack.lib : ipv6.oe674 (.rodata)

.cinit     0    c00cd600    00000cf0     
                  c00cd600    00000b5c     (.cinit..fardata.load) [load image, compression = rle]
                  c00ce15c    00000093     (.cinit..neardata.load) [load image, compression = rle]
                  c00ce1ef    00000029     (.cinit..far.2.load) [load image, compression = rle]
                  c00ce218    00000029     (.cinit..rodata.load) [load image, compression = rle]
                  c00ce241    0000000d     (.cinit..far:NDK_PACKETMEM.load) [load image, compression = rle]
                  c00ce24e    0000000b     (.cinit..far:NDK_OBJMEM.load) [load image, compression = rle]
                  c00ce259    0000000b     (.cinit..far:taskStackSection.load) [load image, compression = rle]
                  c00ce264    0000000b     (.cinit.emacComm.load) [load image, compression = rle]
                  c00ce26f    0000000b     (.cinit.systemHeap.load) [load image, compression = rle]
                  c00ce27a    00000009     (.cinit..bss.load) [load image, compression = rle]
                  c00ce283    00000009     (.cinit..far.1.load) [load image, compression = rle]
                  c00ce28c    00000008     (__TI_handler_table)
                  c00ce294    00000004     --HOLE-- [fill = 0]
                  c00ce298    00000058     (__TI_cinit_table)

.init_array 
*          0    c0000000    00000000     UNINITIALIZED

.far.1     0    c0053ba0    00000060     UNINITIALIZED
                  c0053ba0    00000030     stack.lib : udp.oe674 (.far)
                  c0053bd0    0000002c     (.common:emac_pkt_desc$0)
                  c0053bfc    00000004               : rawethsock_pcb.oe674 (.far)

.far:NDK_PACKETMEM 
*          0    c0053c00    00052b00     UNINITIALIZED
                  c0053c00    00052b00     os.lib : pbm.oe674 (.far:NDK_PACKETMEM)

.far.2     0    c00a6700    000136cc     UNINITIALIZED
                  c00a6700    0000c1c0     os.lib : mem_bios6.oe674 (.far:NDK_MMBUFFER)
                  c00b28c0    00005c04     ti.drv.emac.ae674 : emac_drv_v0.oe674 (.far:EMAC_DRV)
                  c00b84c4    00000004     --HOLE--
                  c00b84c8    00000800     (.common:xdc_runtime_LoggerBuf_Instance_State_0_entryArr__A)
                  c00b8cc8    00000660     nettool.lib : daemon.oe674 (.far)
                  c00b9328    00000198     (.common:UartObjects)
                  c00b94c0    00000140     (.common:__TI_tmpnams)
                  c00b9600    00000110     stack.lib : igmp.oe674 (.far)
                  c00b9710    000000d8     netctrl.lib : netsrv.oe674 (.far)
                  c00b97e8    000000c8     stack.lib : ipv6.oe674 (.far)
                  c00b98b0    000000c4               : tcp.oe674 (.far)
                  c00b9974    000000b8               : tcp6in.oe674 (.far)
                  c00b9a2c    00000004     --HOLE--
                  c00b9a30    000000a0     miniPrintf.lib : miniPrintf.oe674 (.far)
                  c00b9ad0    0000009c     stack.lib : icmp.oe674 (.far)
                  c00b9b6c    00000004     --HOLE--
                  c00b9b70    0000007c     os.lib : mem_bios6.oe674 (.far)
                  c00b9bec    00000068     stack.lib : ip.oe674 (.far)
                  c00b9c54    00000064               : nimu.oe674 (.far)
                  c00b9cb8    00000028               : vlan.oe674 (.far)
                  c00b9ce0    00000024               : udp6.oe674 (.far)
                  c00b9d04    00000004     --HOLE--
                  c00b9d08    0000001c     os.lib : mem_bios6.oe674 (.far:NDK_MMBUFFER1)
                  c00b9d24    00000018     stack.lib : icmpv6.oe674 (.far)
                  c00b9d3c    00000004     --HOLE--
                  c00b9d40    00000014               : rtc.oe674 (.far)
                  c00b9d54    00000010     netctrl.lib : netctrl.oe674 (.far)
                  c00b9d64    00000010     stack.lib : raw.oe674 (.far)
                  c00b9d74    00000010               : raw6.oe674 (.far)
                  c00b9d84    00000010               : raweth.oe674 (.far)
                  c00b9d94    0000000c     os.lib : pbm.oe674 (.far)
                  c00b9da0    00000008     (.common:parmbuf)
                  c00b9da8    00000008     (.common:uart_stdio)
                  c00b9db0    00000004     (.common:pPDI$0)
                  c00b9db4    00000004     --HOLE--
                  c00b9db8    00000004     (.common:ti_sysbios_knl_Task_Instance_State_0_hookEnv__A)
                  c00b9dbc    00000004     --HOLE--
                  c00b9dc0    00000004     (.common:ti_sysbios_knl_Task_Instance_State_1_hookEnv__A)
                  c00b9dc4    00000004     --HOLE--
                  c00b9dc8    00000004     (.common:ti_sysbios_knl_Task_Instance_State_2_hookEnv__A)

systemHeap 
*          0    c00b9dd0    00008000     UNINITIALIZED
                  c00b9dd0    00008000     app_pe674.oe674 (systemHeap)

.far:taskStackSection 
*          0    c00c5cd0    00003c00     UNINITIALIZED
                  c00c5cd0    00003c00     app_pe674.oe674 (.far:taskStackSection)

emacComm   0    c00cd100    00000194     UNINITIALIZED
                  c00cd100    00000194     ti.drv.emac.ae674 : emac_drv_v0.oe674 (emacComm)

.vecs      0    c00cd400    00000200     
                  c00cd400    00000200     app_pe674.oe674 (.vecs)

.far:NDK_OBJMEM 
*          0    c00caad8    00001000     UNINITIALIZED
                  c00caad8    00000a00     miniPrintf.lib : miniPrintf.oe674 (.far:NDK_OBJMEM)
                  c00cb4d8    00000600     os.lib : ossys.oe674 (.far:NDK_OBJMEM)

xdc.meta   0    c0000000    000000f8     COPY SECTION
                  c0000000    000000f8     app_pe674.oe674 (xdc.meta)

.text      0    c0000000    00053ba0     
                  c0000000    00001a00     stack.lib : tcpin.oe674 (.text:TcpInput)
                  c0001a00    000019a0               : tcp6in.oe674 (.text:TCP6Input)
                  c00033a0    00001240               : tcpout.oe674 (.text:TcpOutput)
                  c00045e0    00001180               : tcp6out.oe674 (.text:TCP6Output)
                  c0005760    00000b80               : ipin.oe674 (.text:IPRxPacket)
                  c00062e0    00000ae0     ti.drv.uart.ae674 : UART_stdio.oe674 (.text:UART_printf)
                  c0006dc0    00000aa0     stack.lib : md5.oe674 (.text:MD5Transform)
                  c0007860    000009c0               : ipout.oe674 (.text:IPTxPacket)
                  c0008220    000009a0               : lcp.oe674 (.text:lcpInput)
                  c0008bc0    000008a0     nettool.lib : httpclie.oe674 (.text:httpClientProcess)
                  c0009460    000008a0     ti.targets.rts6000.ae674 : System.oe674 (.text:xdc_runtime_System_doPrint__I)
                  c0009d00    00000880     ti.drv.emac.ae674 : emac.oe674 (.text:EMAC_coreInit)
                  c000a580    000007e0     stack.lib : ipcp.oe674 (.text:ipcpInput)
                  c000ad60    000007c0     nettool.lib : httpsend.oe674 (.text:SetContentType)
                  c000b520    000007a0     stack.lib : sock.oe674 (.text:SockSet)
                  c000bcc0    000007a0               : fileuser.oe674 (.text:fdPoll)
                  c000c460    00000780     sysbios.ae674 : BIOS.obj (.text:ti_sysbios_family_c64p_Exception_handler__I)
                  c000cbe0    00000740     ti.drv.emac.ae674 : mdio.oe674 (.text:MDIO_timerTick)
                  c000d320    00000740     sysbios.ae674 : BIOS.obj (.text:ti_sysbios_knl_Semaphore_pend__E)
                  c000da60    000006c0     ti.drv.emac.ae674 : emac_drv_v0.oe674 (.text:emac_init)
                  c000e120    000006c0     nettool.lib : telnetd.oe674 (.text:telnet_netdata)
                  c000e7e0    000006c0     sysbios.ae674 : BIOS.obj (.text:ti_sysbios_timers_timer64_Timer_Module_startup__E)
                  c000eea0    00000680     ti.drv.emac.ae674 : emac.oe674 (.text:EMAC_RxServiceCheck)
                  c000f520    00000680     stack.lib : icmpv6_ndisc.oe674 (.text:ICMPv6RecvRA)
                  c000fba0    00000660     ti.drv.uart.ae674 : UART_v0.oe674 (.text:UART_v0_hwiIntFxn$0)
                  c0010200    00000640     sysbios.ae674 : BIOS.obj (.text:ti_sysbios_heaps_HeapMem_allocUnprotected__E)
                  c0010840    00000600     ti.drv.emac.ae674 : emac.oe674 (.text:EMAC_coreDeInit)
                  c0010e40    00000600     stack.lib : route6.oe674 (.text:Rt6Create)
                  c0011440    000005c0               : ipfrag.oe674 (.text:IPReasm)
                  c0011a00    000005c0     sysbios.ae674 : BIOS.obj (.text:ti_sysbios_knl_Task_Instance_finalize__E)
                  c0011fc0    000005a0     stack.lib : icmpin.oe674 (.text:ICMPInput)
                  c0012560    000005a0     sysbios.ae674 : BIOS.obj (.text:ti_sysbios_heaps_HeapMem_freeUnprotected__E)
                  c0012b00    00000580     ti.drv.emac.ae674 : emac.oe674 (.text:EMAC_TxServiceCheck)
                  c0013080    00000580     stack.lib : nimuppp.oe674 (.text:pppEvent)
                  c0013600    00000560               : ipv6.oe674 (.text:IPv6IPAddressToString)
                  c0013b60    00000520               : sock.oe674 (.text:SockNew)
                  c0014080    00000500     sysbios.ae674 : BIOS.obj (.text:ti_sysbios_family_c64p_Cache_Module_startup__E)
                  c0014580    000004e0     ti.drv.emac.ae674 : emac.oe674 (.text:EMAC_commonInit)
                  c0014a60    000004e0     stack.lib : lliin.oe674 (.text:LLIRxPacket)
                  c0014f40    000004e0               : udp.oe674 (.text:UdpInput)
                  c0015420    000004e0               : nimupppoe.oe674 (.text:pppoeInputS)
                  c0015900    000004c0               : sock6.oe674 (.text:Sock6Connect)
                  c0015dc0    000004c0               : sock6.oe674 (.text:Sock6Set)
                  c0016280    000004a0               : bind6.oe674 (.text:Bind6New)
                  c0016720    000004a0               : sock6.oe674 (.text:Sock6Recv)
                  c0016bc0    000004a0               : sock.oe674 (.text:SockRecv)
                  c0017060    000004a0     main.obj (.text)
                  c0017500    000004a0     sysbios.ae674 : BIOS.obj (.text:ti_sysbios_knl_Task_Module_startup__E)
                  c00179a0    00000480     miniPrintf.lib : miniPrintf.oe674 (.text:_parsearg)
                  c0017e20    00000460     stack.lib : nimuppp.oe674 (.text:pppNew)
                  c0018280    00000460     sysbios.ae674 : BIOS.obj (.text:ti_sysbios_knl_Task_sleep__E)
                  c00186e0    00000440     stack.lib : sock6.oe674 (.text:Sock6New)
                  c0018b20    00000440               : fileuser.oe674 (.text:fdSelect)
                  c0018f60    00000440               : nimupppoe.oe674 (.text:pppoeInputC)
                  c00193a0    00000420     ti.drv.uart.ae674 : UART_v0.oe674 (.text:UART_write2_v0$0)
                  c00197c0    00000420     miniPrintf.lib : miniPrintf.oe674 (.text:_int2str)
                  c0019be0    00000420     stack.lib : auth.oe674 (.text:chapInput)
                  c001a000    00000420     nettool.lib : daemon.oe674 (.text:daemon)
                  c001a420    00000420     sysbios.ae674 : BIOS.obj (.text:ti_sysbios_knl_Task_Instance_init__E)
                  c001a840    00000420                   : BIOS.obj (.text:ti_sysbios_knl_Task_setPri__E)
                  c001ac60    00000400     stack.lib : sock6.oe674 (.text:Sock6Send)
                  c001b060    00000400     os.lib : efs.oe674 (.text:efs_filecheck)
                  c001b460    000003e0     stack.lib : ipv6_frag.oe674 (.text:IPv6TxFragPacket)
                  c001b840    000003e0     rts6740_elf.lib : fputs.obj (.text:fputs)
                  c001bc20    000003c0     ti.drv.emac.ae674 : emac.oe674 (.text:EMAC_sendPacket)
                  c001bfe0    000003c0     stack.lib : ipv6out.oe674 (.text:IPv6TxPacket)
                  c001c3a0    000003c0               : lli6.oe674 (.text:LLI6TimerCheck)
                  c001c760    000003c0               : sock.oe674 (.text:SockSend)
                  c001cb20    000003c0               : tcp6.oe674 (.text:TCP6TimeoutCheck)
                  c001cee0    000003c0               : tcp.oe674 (.text:TcpTimeoutCheck)
                  c001d2a0    000003c0     ti.drv.uart.ae674 : UART_v0.oe674 (.text:UART_read2_v0$0)
                  c001d660    000003c0     os.lib : mem_bios6.oe674 (.text:_mmCheck)
                  c001da20    000003a0     stack.lib : nimu.oe674 (.text:NIMUIoctl)
                  c001ddc0    000003a0               : route.oe674 (.text:RtCreate)
                  c001e160    000003a0               : sb.oe674 (.text:SBRead)
                  c001e500    000003a0               : auth.oe674 (.text:papInput)
                  c001e8a0    00000380               : icmpv6in.oe674 (.text:ICMPv6RxPacket)
                  c001ec20    00000380               : igmp.oe674 (.text:IGMPInput)
                  c001efa0    00000380               : sock.oe674 (.text:SockConnect)
                  c001f320    00000380     nettool.lib : dhcppkt.oe674 (.text:dhcpPacketProcess)
                  c001f6a0    00000360     stack.lib : ipv6_frag.oe674 (.text:IPv6FragReasm)
                  c001fa00    00000360               : lliout.oe674 (.text:LLITxIpPacket)
                  c001fd60    00000360               : sock6int.oe674 (.text:Sock6Notify)
                  c00200c0    00000360               : sockint.oe674 (.text:SockNotify)
                  c0020420    00000360     ti.drv.uart.ae674 : UART_v0.oe674 (.text:UART_open_v0$0)
                  c0020780    00000340     stack.lib : icmpv6out.oe674 (.text:ICMPv6SendParameterProblem)
                  c0020ac0    00000340     os.lib : mem_bios6.oe674 (.text:mmAlloc)
                  c0020e00    00000340     stack.lib : nimupppoe.oe674 (.text:pppoeSI)
                  c0021140    00000340     sysbios.ae674 : BIOS.obj (.text:ti_sysbios_timers_timer64_Timer_deviceConfig__I)
                  c0021480    00000320     nettool.lib : config.oe674 (.text:CfgAddEntry)
                  c00217a0    00000320     ti.drv.emac.ae674 : emac_drv_v0.oe674 (.text:EMAC_open_v0)
                  c0021ac0    00000320     stack.lib : icmpv6_ndisc.oe674 (.text:ICMPv6RecvRedirect)
                  c0021de0    00000320               : nimupppoe.oe674 (.text:SendServerMsg)
                  c0022100    00000320     nettool.lib : telnetd.oe674 (.text:telnet_engine)
                  c0022420    00000320     sysbios.ae674 : BIOS.obj (.text:ti_sysbios_knl_Swi_runLoop__I)
                  c0022740    00000300     stack.lib : icmpv6_ndisc.oe674 (.text:ICMPv6RecvNS)
                  c0022a40    00000300               : icmpv6out.oe674 (.text:ICMPv6SendDstUnreachable)
                  c0022d40    00000300               : icmpv6out.oe674 (.text:ICMPv6SendTimeExceeded)
                  c0023040    00000300     netctrl.lib : netctrl.oe674 (.text:NetScheduler)
                  c0023340    00000300     stack.lib : sock6pcb.oe674 (.text:Sock6PcbBind)
                  c0023640    00000300               : udp6.oe674 (.text:Udp6Input)
                  c0023940    00000300     nettool.lib : inetaddr.oe674 (.text:inet_aton)
                  c0023c40    000002e0     ti.board.ae674 : lcdkOMAPL138_pll.oe674 (.text:Board_CorePLLConfig)
                  c0023f20    000002e0     ti.transport.ndk.nimu.ae674 : nimu_eth.oe674 (.text:Emacioctl$0)
                  c0024200    000002e0     stack.lib : route6.oe674 (.text:Rt6Find)
                  c00244e0    000002e0               : nimupppoe.oe674 (.text:SendClientMsg)
                  c00247c0    000002e0               : udp.oe674 (.text:UdpOutput)
                  c0024aa0    000002e0               : nimuppp.oe674 (.text:pppInput)
                  c0024d80    000002c0               : bind.oe674 (.text:BindNew)
                  c0025040    000002c0     ti.board.ae674 : lcdkOMAPL138_pll.oe674 (.text:Board_DDRPLLConfig)
                  c0025300    000002c0     stack.lib : ipv6_frag.oe674 (.text:IPv6FragQEnqueueFrag)
                  c00255c0    000002c0               : rtable.oe674 (.text:RtFind)
                  c0025880    000002c0               : sb6.oe674 (.text:SB6Read)
                  c0025b40    000002c0               : sock6pcb.oe674 (.text:Sock6PcbResolve)
                  c0025e00    000002c0               : udp6.oe674 (.text:Udp6Output)
                  c00260c0    000002c0     sysbios.ae674 : BIOS.obj (.text:ti_sysbios_heaps_HeapMem_Instance_init__E)
                  c0026380    000002c0                   : BIOS.obj (.text:ti_sysbios_knl_Clock_Instance_init__E)
                  c0026640    000002a0     stack.lib : ipv6_exthdrs.oe674 (.text:IPv6ParseExtnHeaders)
                  c00268e0    000002a0               : node.oe674 (.text:NodeAdd)
                  c0026b80    000002a0               : sock6pcb.oe674 (.text:Sock6PcbFind)
                  c0026e20    000002a0               : sock.oe674 (.text:SockClose)
                  c00270c0    000002a0               : tcp6prot.oe674 (.text:TCP6PrSetOption)
                  c0027360    000002a0               : tcpprot.oe674 (.text:TcpPrSetOption)
                  c0027600    000002a0     sysbios.ae674 : BIOS.obj (.text:ti_sysbios_knl_Clock_workFunc__E)
                  c00278a0    00000280     ti.board.ae674 : lcdkOMAPL138_clock.oe674 (.text:Board_moduleClockEnable)
                  c0027b20    00000280     nettool.lib : dhcpmain.oe674 (.text:DHCPOpen)
                  c0027da0    00000280     ti.drv.emac.ae674 : emac_drv_v0.oe674 (.text:EMAC_send_v0)
                  c0028020    00000280     stack.lib : icmp.oe674 (.text:ICMPGenPacket)
                  c00282a0    00000280               : icmpv6in.oe674 (.text:ICMPv6RecvEchoRequest)
                  c0028520    00000280               : lli6.oe674 (.text:LLI6NeighUnreachStateMachine)
                  c00287a0    00000280               : route6.oe674 (.text:Rt6Free)
                  c0028a20    00000280               : sockpcb.oe674 (.text:SockPcbResolve)
                  c0028ca0    00000280               : sock.oe674 (.text:SockRecvNC)
                  c0028f20    00000280               : tcp6out.oe674 (.text:TCP6GenPacket)
                  c00291a0    00000280               : ipcp.oe674 (.text:ipcpSendCfg)
                  c0029420    00000280     sysbios.ae674 : BIOS.obj (.text:ti_sysbios_family_c64p_Hwi_reconfig__E)
                  c00296a0    00000280     ti.targets.rts6000.ae674 : LoggerBuf.oe674 (.text:xdc_runtime_LoggerBuf_write8__E)
                  c0029920    00000260     ti.board.ae674 : lcdkOMAPL138_pinmux.oe674 (.text:Board_pinmuxConfig)
                  c0029b80    00000260     ti.transport.ndk.nimu.ae674 : nimu_eth.oe674 (.text:EMACInit_Core$0)
                  c0029de0    00000260     ti.drv.emac.ae674 : emac_drv_v0.oe674 (.text:EMAC_poll_v0)
                  c002a040    00000260                       : emac.oe674 (.text:EMAC_setMulticast)
                  c002a2a0    00000260     stack.lib : icmpv6_ndisc.oe674 (.text:ICMPv6SendNA)
                  c002a500    00000260               : icmpv6_ndisc.oe674 (.text:ICMPv6SendNS)
                  c002a760    00000260     os.lib : intmgmt_bios6.oe674 (.text:Interrupt_add)
                  c002a9c0    00000260     stack.lib : lli6.oe674 (.text:LLI6TxIPPacket)
                  c002ac20    00000260               : nimu.oe674 (.text:NIMUReceivePacket)
                  c002ae80    00000260               : rawethsock.oe674 (.text:RawEthSockSet)
                  c002b0e0    00000260               : sb6.oe674 (.text:SB6Write)
                  c002b340    00000260               : sb.oe674 (.text:SBWrite)
                  c002b5a0    00000260               : sock6.oe674 (.text:Sock6Close)
                  c002b800    00000260               : sockpcb.oe674 (.text:SockPcbBind)
                  c002ba60    00000260     rts6740_elf.lib : imath64.obj (.text:__c6xabi_divull)
                  c002bcc0    00000260     nettool.lib : httppars.oe674 (.text:httpParseRecv)
                  c002bf20    00000260     stack.lib : lcp.oe674 (.text:lcpSendCfg)
                  c002c180    00000260     sysbios.ae674 : BIOS.obj (.text:ti_sysbios_family_c64p_Cache_block__I)
                  c002c3e0    00000260                   : BIOS.obj (.text:ti_sysbios_family_c64p_Hwi_dispatchCore__I)
                  c002c640    00000240     nettool.lib : daemon.oe674 (.text:DaemonNew)
                  c002c880    00000240     stack.lib : pipe.oe674 (.text:PipeRecv)
                  c002cac0    00000240               : raw.oe674 (.text:RawInput)
                  c002cd00    00000240     nettool.lib : dhcpsm.oe674 (.text:dhcpIPAdd)
                  c002cf40    00000240                 : dhcpsm.oe674 (.text:dhcpState)
                  c002d180    00000240                 : dhcppkt.oe674 (.text:dhcpVerifyMessage)
                  c002d3c0    00000240     sysbios.ae674 : BIOS.obj (.text:ti_sysbios_family_c64p_EventCombiner_dispatch__E)
                  c002d600    00000240                   : BIOS.obj (.text:ti_sysbios_family_c64p_Exception_internalHandler__I)
                  c002d840    00000240                   : BIOS.obj (.text:ti_sysbios_knl_Semaphore_post__E)
                  c002da80    00000240     app_pe674.oe674 (.text:xdc_runtime_System_printfExtend__I)
                  c002dcc0    00000220     stack.lib : bind6.oe674 (.text:Bind6RunDAD)
                  c002dee0    00000220               : icmpv6_ndisc.oe674 (.text:ICMPv6RecvNA)
                  c002e100    00000220               : igmp.oe674 (.text:IGMPJoinHostGroup)
                  c002e320    00000220               : ipv6in.oe674 (.text:IPv6RxPacket)
                  c002e540    00000220               : rawethsock.oe674 (.text:RawEthSockNew)
                  c002e760    00000220               : sockpcb.oe674 (.text:SockPcbFind)
                  c002e980    00000220     rts6740_elf.lib : fputc.obj (.text:fputc)
                  c002eba0    00000220     nettool.lib : httpclie.oe674 (.text:httpGetAuthParams)
                  c002edc0    00000220     rts6740_elf.lib : setvbuf.obj (.text:setvbuf)
                  c002efe0    00000220     sysbios.ae674 : BIOS.obj (.text:ti_sysbios_knl_Swi_run__I)
                  c002f200    00000220                   : BIOS.obj (.text:ti_sysbios_knl_Task_schedule__I)
                  c002f420    00000220                   : BIOS.obj (.text:ti_sysbios_timers_timer64_Timer_setPeriodMicroSecs__E)
                  c002f640    00000220     ti.targets.rts6000.ae674 : Core-mem.oe674 (.text:xdc_runtime_Core_createObject__I)
                  c002f860    00000200     ti.board.ae674 : lcdkOMAPL138_clock.oe674 (.text:Board_moduleClockSyncReset)
                  c002fa60    00000200     stack.lib : ipv6_frag.oe674 (.text:IPv6ParseFragHdr)
                  c002fc60    00000200               : lli6.oe674 (.text:LLI6New)
                  c002fe60    00000200               : rtc.oe674 (.text:RTCReport)
                  c0030060    00000200               : raw6.oe674 (.text:Raw6Output)
                  c0030260    00000200     sysbios.ae674 : c64p_Hwi_disp_always.obj (.text:_ti_sysbios_family_c64p_Hwi_dispatchAlways)
                  c0030460    00000200     stack.lib : socket.oe674 (.text:accept)
                  c0030660    00000200     sysbios.ae674 : BIOS.obj (.text:ti_sysbios_family_c64p_EventCombiner_dispatchPlug__E)
                  c0030860    00000200                   : BIOS.obj (.text:ti_sysbios_knl_Task_exit__E)
                  c0030a60    00000200                   : BIOS.obj (.text:ti_sysbios_knl_Task_postInit__I)
                  c0030c60    00000200                   : BIOS.obj (.text:ti_sysbios_knl_Task_startCore__E)
                  c0030e60    000001e0     stack.lib : igmp.oe674 (.text:IGMPSendReply)
                  c0031040    000001e0               : route6.oe674 (.text:Rt6Modify)
                  c0031220    000001e0               : sock6pcb.oe674 (.text:Sock6PcbFindRaw)
                  c0031400    000001e0               : tcpout.oe674 (.text:TcpGenPacket)
                  c00315e0    000001e0               : tcptime.oe674 (.text:TcpTimeoutRexmt)
                  c00317c0    000001e0     miniPrintf.lib : miniPrintf.oe674 (.text:_str2str)
                  c00319a0    000001e0     stack.lib : auth.oe674 (.text:chapSendMsg)
                  c0031b80    000001e0     nettool.lib : dhcpsock.oe674 (.text:dhcpSocketOpen)
                  c0031d60    000001e0     stack.lib : nimupppoe.oe674 (.text:pppoeCtrlMsg)
                  c0031f40    000001e0               : socket.oe674 (.text:sendto)
                  c0032120    000001e0     sysbios.ae674 : BIOS.obj (.text:ti_sysbios_gates_GateMutex_enter__E)
                  c0032300    000001e0     ti.targets.rts6000.ae674 : Error.oe674 (.text:xdc_runtime_Error_policyDefault__E)
                  c00324e0    000001e0                              : Startup.oe674 (.text:xdc_runtime_Startup_startMods__I)
                  c00326c0    000001c0     nettool.lib : config.oe674 (.text:CfgExecute)
                  c0032880    000001c0     stack.lib : ip.oe674 (.text:IPGetRoute)
                  c0032a40    000001c0               : ipv6_exthdrs.oe674 (.text:IPv6ParseHopOptions)
                  c0032c00    000001c0               : lliout.oe674 (.text:LLIGenArpPacket)
                  c0032dc0    000001c0     netctrl.lib : netctrl.oe674 (.text:NC_NetStart)
                  c0032f80    000001c0                 : netsrv.oe674 (.text:SPIpNet)
                  c0033140    000001c0     stack.lib : lli.oe674 (.text:_LLITimeoutCheck)
                  c0033300    000001c0     miniPrintf.lib : miniPrintf.oe674 (.text:_printf)
                  c00334c0    000001c0     nettool.lib : dhcpbild.oe674 (.text:dhcpBuildHeader)
                  c0033680    000001c0     stack.lib : fileuser.oe674 (.text:fdClose)
                  c0033840    000001c0     nimu_osal_omapl13x.obj (.text)
                  c0033a00    000001c0     stack.lib : socket.oe674 (.text:recvncfrom)
                  c0033bc0    000001c0     sysbios.ae674 : BIOS.obj (.text:ti_sysbios_knl_Task_checkStacks__E)
                  c0033d80    000001c0                   : BIOS.obj (.text:ti_sysbios_timers_timer64_Timer_getFreq__E)
                  c0033f40    000001c0     ti.targets.rts6000.ae674 : LoggerBuf.oe674 (.text:xdc_runtime_LoggerBuf_write4__E)
                  c0034100    000001c0                              : Text.oe674 (.text:xdc_runtime_Text_putSite__E)
                  c00342c0    000001a0     stack.lib : bind6.oe674 (.text:Bind6Msg)
                  c0034460    000001a0     ti.board.ae674 : lcdkOMAPL138_ddr.oe674 (.text:Board_DDR3Init)
                  c0034600    000001a0     nettool.lib : config.oe674 (.text:CfgRemoveEntry)
                  c00347a0    000001a0     ti.transport.ndk.nimu.ae674 : nimu_eth.oe674 (.text:EmacRxPkt$0)
                  c0034940    000001a0     rts6740_elf.lib : hostrename.obj (.text:HOSTrename)
                  c0034ae0    000001a0     stack.lib : icmpin.oe674 (.text:ICMPRevSrcRoute)
                  c0034c80    000001a0               : ipv6_frag.oe674 (.text:IPv6FragMsg)
                  c0034e20    000001a0               : ipv6_exthdrs.oe674 (.text:IPv6ParseRoutingHdr)
                  c0034fc0    000001a0               : node.oe674 (.text:NodeTreeFree)
                  c0035160    000001a0               : raw6.oe674 (.text:Raw6Input)
                  c0035300    000001a0               : route6.oe674 (.text:Route6LifetimeMgmt)
                  c00354a0    000001a0               : sockint.oe674 (.text:SockCreatePacket)
                  c0035640    000001a0     nettool.lib : dhcpsm.oe674 (.text:StateRenewRebind)
                  c00357e0    000001a0     stack.lib : tcp6time.oe674 (.text:TCP6TimeoutRexmt)
                  c0035980    000001a0     ti.drv.uart.ae674 : UART_v0.oe674 (.text:UART_readPolling_v0$0)
                  c0035b20    000001a0     nettool.lib : dhcptags.oe674 (.text:dhcpBuildOptions)
                  c0035cc0    000001a0     ti.drv.emac.ae674 : emac_drv_v0.oe674 (.text:emac_reset)
                  c0035e60    000001a0     stack.lib : socket.oe674 (.text:getpeername)
                  c0036000    000001a0     nettool.lib : telnetd.oe674 (.text:telnet_termdata)
                  c00361a0    000001a0     sysbios.ae674 : BIOS.obj (.text:ti_sysbios_family_c64p_Cache_getL2InitSize__I)
                  c0036340    000001a0                   : BIOS.obj (.text:ti_sysbios_heaps_HeapBuf_Module_startup__E)
                  c00364e0    000001a0                   : BIOS.obj (.text:ti_sysbios_timers_timer64_Timer_start__E)
                  c0036680    00000180     stack.lib : bind6.oe674 (.text:Bind6GetGlobalAddress)
                  c0036800    00000180     ti.drv.emac.ae674 : emac_drv_v0.oe674 (.text:EMAC_config_v0)
                  c0036980    00000180                       : emac.oe674 (.text:EMAC_setReceiveFilter)
                  c0036b00    00000180     stack.lib : igmp.oe674 (.text:IGMPMsg)
                  c0036c80    00000180               : nimu.oe674 (.text:NIMURegister)
                  c0036e00    00000180               : nimuppp.oe674 (.text:PPPStop)
                  c0036f80    00000180     netctrl.lib : netsrv.oe674 (.text:ServiceScan)
                  c0037100    00000180                 : netsrv.oe674 (.text:ServiceSpawn)
                  c0037280    00000180     nettool.lib : dhcpsm.oe674 (.text:StateBound)
                  c0037400    00000180     stack.lib : socket.oe674 (.text:bind)
                  c0037580    00000180     nettool.lib : dhcpbild.oe674 (.text:dhcpBuildRequest)
                  c0037700    00000180     os.lib : task_bios6.oe674 (.text:llEnter)
                  c0037880    00000180     stack.lib : auth.oe674 (.text:papSendCfg)
                  c0037a00    00000180     sysbios.ae674 : c64p_Exception_asm.obj (.text)
                  c0037b80    00000180                   : BIOS.obj (.text:ti_sysbios_knl_Task_unblockI__E)
                  c0037d00    00000180     ti.targets.rts6000.ae674 : Core-smem.oe674 (.text:xdc_runtime_Core_constructObject__I)
                  c0037e80    00000160     ti.board.ae674 : lcdkOMAPL138.oe674 (.text:Board_init)
                  c0037fe0    00000160     nettool.lib : config.oe674 (.text:CfgGetEntry)
                  c0038140    00000160                 : config.oe674 (.text:CfgGetNextEntry)
                  c00382a0    00000160     os.lib : ossys.oe674 (.text:DbgPrintf)
                  c0038400    00000160     ti.drv.emac.ae674 : emac.oe674 (.text:EMAC_close)
                  c0038560    00000160     stack.lib : igmp.oe674 (.text:IGMPDoMCast)
                  c00386c0    00000160               : nimu.oe674 (.text:NIMUIoctlSpecialCmd)
                  c0038820    00000160     os.lib : pbm.oe674 (.text:PBM_free)
                  c0038980    00000160     stack.lib : pipe.oe674 (.text:PipeSend)
                  c0038ae0    00000160               : raw.oe674 (.text:RawOutput)
                  c0038c40    00000160               : rtable.oe674 (.text:RtTimeoutCheck)
                  c0038da0    00000160               : rtable.oe674 (.text:RtWalkNext)
                  c0038f00    00000160     netctrl.lib : netsrv.oe674 (.text:SPRoute)
                  c0039060    00000160     stack.lib : sock6.oe674 (.text:Sock6Check)
                  c00391c0    00000160               : sock6int.oe674 (.text:Sock6CreatePacket)
                  c0039320    00000160               : sock6pcb.oe674 (.text:Sock6PcbConnect)
                  c0039480    00000160               : sock.oe674 (.text:SockCheck)
                  c00395e0    00000160               : sockpcb.oe674 (.text:SockPcbConnect)
                  c0039740    00000160     nettool.lib : dhcpsm.oe674 (.text:StateRequesting)
                  c00398a0    00000160     stack.lib : tcp6time.oe674 (.text:TCP6TimeoutKeep)
                  c0039a00    00000160               : tcptime.oe674 (.text:TcpTimeoutKeep)
                  c0039b60    00000160     os.lib : mem_bios6.oe674 (.text:_mmInit)
                  c0039cc0    00000160     stack.lib : auth.oe674 (.text:authInit)
                  c0039e20    00000160     nettool.lib : httpclie.oe674 (.text:httpExtractTag)
                  c0039f80    00000160                 : httpsend.oe674 (.text:httpSendErrorHTML)
                  c003a0e0    00000160     stack.lib : socket.oe674 (.text:setsockopt)
                  c003a240    00000160     nettool.lib : telnetd.oe674 (.text:telnetClientProcess)
                  c003a3a0    00000160     sysbios.ae674 : BIOS.obj (.text:ti_sysbios_knl_Swi_post__E)
                  c003a500    00000140     stack.lib : bind6.oe674 (.text:Bind6Free)
                  c003a640    00000140               : exec.oe674 (.text:ExecOpen)
                  c003a780    00000140               : icmp.oe674 (.text:ICMPSendRtAdv)
                  c003a8c0    00000140               : igmp.oe674 (.text:IGMPJoin)
                  c003aa00    00000140               : ipv6.oe674 (.text:IPv6DisplayIPAddress)
                  c003ab40    00000140               : lli6.oe674 (.text:LLI6Find)
                  c003ac80    00000140               : lli.oe674 (.text:LLINew)
                  c003adc0    00000140               : node.oe674 (.text:NodeFind)
                  c003af00    00000140               : node.oe674 (.text:NodeWalk)
                  c003b040    00000140     ti.osal.ae674 : RegisterIntr_tirtos.oe674 (.text:Osal_RegisterInterrupt)
                  c003b180    00000140     os.lib : pbm.oe674 (.text:PBM_alloc)
                  c003b2c0    00000140     stack.lib : rtable.oe674 (.text:RtFlush)
                  c003b400    00000140               : sb6.oe674 (.text:SB6New)
                  c003b540    00000140     netctrl.lib : netsrv.oe674 (.text:ServiceKill)
                  c003b680    00000140     stack.lib : sock6.oe674 (.text:Sock6Accept)
                  c003b7c0    00000140               : sock6.oe674 (.text:Sock6Listen)
                  c003b900    00000140               : sock.oe674 (.text:SockAccept)
                  c003ba40    00000140               : sock.oe674 (.text:SockListen)
                  c003bb80    00000140               : sockpcb.oe674 (.text:SockPcbCtlError)
                  c003bcc0    00000140     rts6740_elf.lib : fclose.obj (.text:__TI_closefile)
                  c003be00    00000140     boot.ae674 : autoinit.oe674 (.text:_auto_init_elf)
                  c003bf40    00000140     stack.lib : auth.oe674 (.text:authGetPassword)
                  c003c080    00000140     nettool.lib : dhcptags.oe674 (.text:dhcpDecodeType)
                  c003c1c0    00000140     rts6740_elf.lib : fflush.obj (.text:fflush)
                  c003c300    00000140                     : getdevice.obj (.text:getdevice)
                  c003c440    00000140     nettool.lib : httpsend.oe674 (.text:httpAuthenticationReq)
                  c003c580    00000140     os.lib : mem_bios6.oe674 (.text:mmCopy)
                  c003c6c0    00000140     stack.lib : socket.oe674 (.text:recv)
                  c003c800    00000140               : socket.oe674 (.text:send)
                  c003c940    00000140     sysbios.ae674 : BIOS.obj (.text:ti_sysbios_family_c64p_Hwi_Instance_init__E)
                  c003ca80    00000140                   : BIOS.obj (.text:ti_sysbios_family_c64p_Hwi_Module_startup__E)
                  c003cbc0    00000140                   : BIOS.obj (.text:ti_sysbios_knl_Semaphore_Instance_init__E)
                  c003cd00    00000140                   : BIOS.obj (.text:ti_sysbios_knl_Task_blockI__E)
                  c003ce40    00000120     stack.lib : bind6.oe674 (.text:Bind6DADCheck)
                  c003cf60    00000120               : bind6.oe674 (.text:Bind6LifetimeMgmt)
                  c003d080    00000120               : bind.oe674 (.text:BindFree)
                  c003d1a0    00000120     nettool.lib : config.oe674 (.text:CfgFree)
                  c003d2c0    00000120                 : daemon.oe674 (.text:DaemonFree)
                  c003d3e0    00000120     ti.transport.ndk.nimu.ae674 : nimu_eth.oe674 (.text:EmacSendPkt$0)
                  c003d500    00000120                                 : nimu_eth.oe674 (.text:EmacStart$0)
                  c003d620    00000120     stack.lib : file.oe674 (.text:FdWaitEvent)
                  c003d740    00000120     ti.osal.ae674 : HwiP_tirtos.oe674 (.text:HwiP_create)
                  c003d860    00000120     stack.lib : igmp.oe674 (.text:IGMPLeaveHostGroup)
                  c003d980    00000120               : ip.oe674 (.text:IPMsg)
                  c003daa0    00000120               : ipin.oe674 (.text:IPRouteIP)
                  c003dbc0    00000120               : ipv6_frag.oe674 (.text:IPv6CreateFragQ)
                  c003dce0    00000120               : ipv6.oe674 (.text:IPv6Init)
                  c003de00    00000120               : icmpv6out.oe674 (.text:IsICMPv6ErrorPkt)
                  c003df20    00000120               : md5.oe674 (.text:MD5Update)
                  c003e040    00000120               : mld.oe674 (.text:MLDJoinGroup)
                  c003e160    00000120     netctrl.lib : netctrl.oe674 (.text:NC_SystemOpen)
                  c003e280    00000120     stack.lib : nimu.oe674 (.text:NIMUAddEthernetHeader)
                  c003e3a0    00000120               : raweth.oe674 (.text:RawEthRxPacket)
                  c003e4c0    00000120               : raweth.oe674 (.text:RawEthTxPacket)
                  c003e5e0    00000120               : sb.oe674 (.text:SBNew)
                  c003e700    00000120     netctrl.lib : netsrv.oe674 (.text:SPConfig)
                  c003e820    00000120                 : netsrv.oe674 (.text:SPService)
                  c003e940    00000120     stack.lib : sock6.oe674 (.text:Sock6Shutdown)
                  c003ea60    00000120               : sockpcb.oe674 (.text:SockPcbFindRaw)
                  c003eb80    00000120               : sock.oe674 (.text:SockShutdown)
                  c003eca0    00000120               : tcp6prot.oe674 (.text:TCP6PrAttach)
                  c003edc0    00000120               : tcpprot.oe674 (.text:TcpPrAttach)
                  c003eee0    00000120     nettool.lib : telnetd.oe674 (.text:TelnetOpen)
                  c003f000    00000120     stack.lib : rtable.oe674 (.text:_RtNodeInsert)
                  c003f120    00000120     nettool.lib : daemon.oe674 (.text:dchild)
                  c003f240    00000120     ti.drv.emac.ae674 : emac_drv_v0.oe674 (.text:emac_int_service)
                  c003f360    00000120                       : emac_drv_v0.oe674 (.text:emac_rx_packet)
                  c003f480    00000120     stack.lib : fileuser.oe674 (.text:fdOpenSession)
                  c003f5a0    00000120     rts6740_elf.lib : fseek.obj (.text:fseek)
                  c003f6c0    00000120     nettool.lib : http.oe674 (.text:httpOpen)
                  c003f7e0    00000120                 : httpsend.oe674 (.text:httpSendStatusLine)
                  c003f900    00000120     stack.lib : lcp.oe674 (.text:lcpReject)
                  c003fa20    00000120               : socket.oe674 (.text:socket)
                  c003fb40    00000120     sysbios.ae674 : BIOS.obj (.text:ti_sysbios_knl_Clock_start__E)
                  c003fc60    00000120     ti.targets.rts6000.ae674 : Core-mem.oe674 (.text:xdc_runtime_Core_deleteObject__I)
                  c003fd80    00000120                              : LoggerBuf.oe674 (.text:xdc_runtime_LoggerBuf_setFilterLevel__E)
                  c003fea0    00000120                              : Text.oe674 (.text:xdc_runtime_Text_putLab__E)
                  c003ffc0    00000120                              : Text.oe674 (.text:xdc_runtime_Text_putMod__E)
                  c00400e0    00000100     ti.board.ae674 : lcdkOMAPL138_pinmux.oe674 (.text:Board_configEmifPinMux)
                  c00401e0    00000100                    : lcdkOMAPL138_pinmux.oe674 (.text:Board_configGpioPinMux$0)
                  c00402e0    00000100                    : lcdkOMAPL138_clock.oe674 (.text:Board_moduleClockInit)
                  c00403e0    00000100     nettool.lib : config.oe674 (.text:CfgGetEntryCnt)
                  c00404e0    00000100                 : config.oe674 (.text:CfgNew)
                  c00405e0    00000100                 : config.oe674 (.text:CfgSetExecuteOrder)
                  c00406e0    00000100     ti.osal.ae674 : EventCombinerP_tirtos.oe674 (.text:EventCombinerP_GroupRegisterInt)
                  c00407e0    00000100     stack.lib : igmp.oe674 (.text:IGMPTimer)
                  c00408e0    00000100               : ipv6.oe674 (.text:IPv6GetSubnetMaskFromBits)
                  c00409e0    00000100               : ipv6_frag.oe674 (.text:IPv6ReasmTimeout)
                  c0040ae0    00000100     ti.drv.emac.ae674 : mdio.oe674 (.text:MDIO_close)
                  c0040be0    00000100     stack.lib : rtc.oe674 (.text:RTCMsg)
                  c0040ce0    00000100               : rawethsock.oe674 (.text:RawEthSockCheck)
                  c0040de0    00000100               : route.oe674 (.text:RtRedirect)
                  c0040ee0    00000100     ti.osal.ae674 : SemaphoreP_tirtos.oe674 (.text:SemaphoreP_create)
                  c0040fe0    00000100     stack.lib : sock6.oe674 (.text:Sock6Disconnect)
                  c00410e0    00000100               : sockint.oe674 (.text:SockValidateRoute)
                  c00411e0    00000100     nettool.lib : dhcpsm.oe674 (.text:StateSelecting)
                  c00412e0    00000100     stack.lib : tcp6prot.oe674 (.text:TCP6PrInherit)
                  c00413e0    00000100               : tcp6time.oe674 (.text:TCP6XmitTimer)
                  c00414e0    00000100               : tcpprot.oe674 (.text:TcpPrInherit)
                  c00415e0    00000100               : tcptime.oe674 (.text:TcpXmitTimer)
                  c00416e0    00000100     ti.drv.uart.ae674 : UART_v0.oe674 (.text:UART_writePolling_v0$0)
                  c00417e0    00000100     rts6740_elf.lib : copy_decompress_rle.obj (.text:__TI_decompress_rle_core)
                  c00418e0    00000100                     : _io_perm.obj (.text:__TI_wrt_ok)
                  c00419e0    00000100                     : atoi.obj (.text:atoi)
                  c0041ae0    00000100     ti.drv.emac.ae674 : emac.oe674 (.text:emacUpdateStats)
                  c0041be0    00000100                       : emac_drv_v0.oe674 (.text:emac_free_packet)
                  c0041ce0    00000100                       : emac_drv_v0.oe674 (.text:emac_reset_queue)
                  c0041de0    00000100     stack.lib : lcp.oe674 (.text:lcpOpen)
                  c0041ee0    00000100               : socket.oe674 (.text:listen)
                  c0041fe0    00000100     os.lib : mem_bios6.oe674 (.text:mmFree)
                  c00420e0    00000100     stack.lib : nimuppp.oe674 (.text:pppAddClient)
                  c00421e0    00000100     miniPrintf.lib : miniPrintf.oe674 (.text:printstr)
                  c00422e0    00000100     sysbios.ae674 : BIOS.obj (.text:ti_sysbios_family_c64p_Hwi_Instance_finalize__E)
                  c00423e0    00000100                   : BIOS.obj (.text:ti_sysbios_knl_Swi_restoreHwi__E)
                  c00424e0    00000100                   : BIOS.obj (.text:ti_sysbios_timers_timer64_Timer_initDevice__I)
                  c00425e0    00000100     stack.lib : lliin.oe674 (.text:updateRtTable)
                  c00426e0    00000100     ti.targets.rts6000.ae674 : LoggerBuf.oe674 (.text:xdc_runtime_LoggerBuf_getFilterLevel__E)
                  c00427e0    00000100                              : Startup.oe674 (.text:xdc_runtime_Startup_exec__E)
                  c00428e0    000000e0     stack.lib : bind6.oe674 (.text:Bind6GetLinkLocalAddress)
                  c00429c0    000000e0     ti.transport.ndk.nimu.ae674 : nimu_eth.oe674 (.text:Emac_interrupt_init$0)
                  c0042aa0    000000e0     rts6740_elf.lib : hostlseek.obj (.text:HOSTlseek)
                  c0042b80    000000e0                     : hostopen.obj (.text:HOSTopen)
                  c0042c60    000000e0                     : hostwrite.obj (.text:HOSTwrite)
                  c0042d40    000000e0     stack.lib : igmp.oe674 (.text:IGMPLeave)
                  c0042e20    000000e0               : ipv6_frag.oe674 (.text:IPv6FindFragQ)
                  c0042f00    000000e0               : lli6.oe674 (.text:LLI6Msg)
                  c0042fe0    000000e0               : lli6.oe674 (.text:LLI6Update)
                  c00430c0    000000e0               : mld.oe674 (.text:MLDFindMulticastNode)
                  c00431a0    000000e0               : nimu.oe674 (.text:NIMUAllocateIndex)
                  c0043280    000000e0               : nimu.oe674 (.text:NIMUAllocateName)
                  c0043360    000000e0               : node.oe674 (.text:NodeDeRef)
                  c0043440    000000e0               : node.oe674 (.text:NodeNew)
                  c0043520    000000e0               : node.oe674 (.text:NodeTreeNew)
                  c0043600    000000e0     os.lib : pbm.oe674 (.text:PBMQ_enq)
                  c00436e0    000000e0            : pbm.oe674 (.text:PBM_copy)
                  c00437c0    000000e0     ti.drv.emac.ae674 : mdio.oe674 (.text:PHYREG_waitResultsAck)
                  c00438a0    000000e0     stack.lib : rawethsock.oe674 (.text:RawEthSockNotify)
                  c0043980    000000e0               : rawethsock_pcb.oe674 (.text:RawEthSockPcbAttach)
                  c0043a60    000000e0               : rawethsock.oe674 (.text:RawEthSockSend)
                  c0043b40    000000e0               : route6.oe674 (.text:Route6Msg)
                  c0043c20    000000e0               : route.oe674 (.text:RtRemove)
                  c0043d00    000000e0               : sb.oe674 (.text:SBReadNC)
                  c0043de0    000000e0               : sb.oe674 (.text:SBSetMax)
                  c0043ec0    000000e0               : sock6.oe674 (.text:Sock6IntAbort)
                  c0043fa0    000000e0               : sock6int.oe674 (.text:Sock6SpawnAbort)
                  c0044080    000000e0               : sock6int.oe674 (.text:Sock6ValidateRoute)
                  c0044160    000000e0               : sock.oe674 (.text:SockDisconnect)
                  c0044240    000000e0               : sockint.oe674 (.text:SockSpawnAbort)
                  c0044320    000000e0               : tcp6prot.oe674 (.text:TCP6PrDetach)
                  c0044400    000000e0               : tcp6prot.oe674 (.text:TCP6PrDisconnect)
                  c00444e0    000000e0               : tcp6time.oe674 (.text:TCP6TimeoutSackRexmt)
                  c00445c0    000000e0               : tcp6prot.oe674 (.text:TCP6ValidateMetrics)
                  c00446a0    000000e0               : tcpprot.oe674 (.text:TcpPrDetach)
                  c0044780    000000e0               : tcpprot.oe674 (.text:TcpPrDisconnect)
                  c0044860    000000e0               : tcptime.oe674 (.text:TcpTimeoutSackRexmt)
                  c0044940    000000e0               : tcpprot.oe674 (.text:TcpValidateMetrics)
                  c0044a20    000000e0               : timer.oe674 (.text:TimerListInsert)
                  c0044b00    000000e0     ti.drv.uart.ae674 : UART_v0.oe674 (.text:UART_close_v0$0)
                  c0044be0    000000e0                       : UART_v0.oe674 (.text:UART_read_v0$0)
                  c0044cc0    000000e0                       : UART_v0.oe674 (.text:UART_write_v0$0)
                  c0044da0    000000e0     stack.lib : udp.oe674 (.text:UdpChecksum)
                  c0044e80    000000e0               : vlan.oe674 (.text:VLANDeinit)
                  c0044f60    000000e0               : vlan.oe674 (.text:VLANReceivePacket)
                  c0045040    000000e0     nettool.lib : config.oe674 (.text:_CfgEntryScan)
                  c0045120    000000e0     stack.lib : lli.oe674 (.text:_LLIExpListInsert)
                  c0045200    000000e0               : rtable.oe674 (.text:_RtExpListInsert)
                  c00452e0    000000e0               : rtable.oe674 (.text:_RtNodeRemove)
                  c00453c0    000000e0     rts6740_elf.lib : close.obj (.text:close)
                  c00454a0    000000e0     ti.drv.emac.ae674 : emac_drv_v0.oe674 (.text:emac_get_packet)
                  c0045580    000000e0     rts6740_elf.lib : exit.obj (.text:exit)
                  c0045660    000000e0     stack.lib : file.oe674 (.text:fdint_lockfd)
                  c0045740    000000e0               : file.oe674 (.text:fdint_unlockfd)
                  c0045820    000000e0     nettool.lib : httpclie.oe674 (.text:httpGetMimeBits)
                  c0045900    000000e0     os.lib : task_bios6.oe674 (.text:llExit)
                  c00459e0    000000e0     rts6740_elf.lib : memset.obj (.text:memset)
                  c0045ac0    000000e0     os.lib : mem_bios6.oe674 (.text:mmBulkAlloc)
                  c0045ba0    000000e0     stack.lib : nimuppp.oe674 (.text:pppFree)
                  c0045c80    000000e0     sysbios.ae674 : BIOS.obj (.text:ti_sysbios_heaps_HeapMem_alloc__E)
                  c0045d60    000000e0                   : BIOS.obj (.text:ti_sysbios_timers_timer64_Timer_startup__E)
                  c0045e40    000000e0     ti.targets.rts6000.ae674 : Error.oe674 (.text:xdc_runtime_Error_print__E)
                  c0045f20    000000e0                              : Memory.oe674 (.text:xdc_runtime_Memory_alloc__E)
                  c0046000    000000e0                              : Text.oe674 (.text:xdc_runtime_Text_visitRope2__I)
                  c00460e0    000000c0     nettool.lib : dhcpmain.oe674 (.text:DHCPClose)
                  c00461a0    000000c0     ti.transport.ndk.nimu.ae674 : nimu_eth.oe674 (.text:EmacSend$0)
                  c0046260    000000c0     rts6740_elf.lib : hostread.obj (.text:HOSTread)
                  c0046320    000000c0                     : hostunlink.obj (.text:HOSTunlink)
                  c00463e0    000000c0     stack.lib : icmpv6in.oe674 (.text:ICMPv6SocketErrorInterface)
                  c00464a0    000000c0               : ipv6.oe674 (.text:IPv6Layer4ComputeChecksum)
                  c0046560    000000c0               : lli.oe674 (.text:LLIGetValidTime)
                  c0046620    000000c0               : lli.oe674 (.text:LLIMsg)
                  c00466e0    000000c0               : mld.oe674 (.text:MLDCreateMulticastNode)
                  c00467a0    000000c0               : mld.oe674 (.text:MLDLeaveGroup)
                  c0046860    000000c0               : nimu.oe674 (.text:NIMUFindByName)
                  c0046920    000000c0     netctrl.lib : netsrv.oe674 (.text:NS_BootTask)
                  c00469e0    000000c0     stack.lib : node.oe674 (.text:NodeUpdatePL)
                  c0046aa0    000000c0     nettool.lib : ipaddr.oe674 (.text:NtIfIdx2Ip)
                  c0046b60    000000c0     ti.drv.emac.ae674 : mdio.oe674 (.text:PHYREG_waitResults)
                  c0046c20    000000c0     stack.lib : route6.oe674 (.text:Rt6FindDefaultRouter)
                  c0046ce0    000000c0               : route.oe674 (.text:RtDeRef)
                  c0046da0    000000c0               : rtable.oe674 (.text:RtWalkBegin)
                  c0046e60    000000c0               : sb6.oe674 (.text:SB6Flush)
                  c0046f20    000000c0               : sb6.oe674 (.text:SB6SetMax)
                  c0046fe0    000000c0               : sb.oe674 (.text:SBFlush)
                  c00470a0    000000c0               : sock6pcb.oe674 (.text:Sock6PcbResolveChain)
                  c0047160    000000c0               : sock6pcb.oe674 (.text:Sock6PcbRtChange)
                  c0047220    000000c0               : sock.oe674 (.text:SockIntAbort)
                  c00472e0    000000c0               : sockpcb.oe674 (.text:SockPcbRtChange)
                  c00473a0    000000c0               : tcp6prot.oe674 (.text:TCP6Close)
                  c0047460    000000c0     os.lib : task_bios6.oe674 (.text:TaskGetEnv)
                  c0047520    000000c0     stack.lib : tcp.oe674 (.text:TcpChecksum)
                  c00475e0    000000c0               : tcpprot.oe674 (.text:TcpClose)
                  c00476a0    000000c0     ti.drv.uart.ae674 : UART_v0.oe674 (.text:UART_charGet$0)
                  c0047760    000000c0                       : UART_v0.oe674 (.text:UART_charPut$0)
                  c0047820    000000c0                       : UART_v0.oe674 (.text:UART_readCancelNoCB$0)
                  c00478e0    000000c0     stack.lib : bind6.oe674 (.text:_Bind6FindByHostInList)
                  c00479a0    000000c0               : bind6.oe674 (.text:_Bind6FindByNetInList)
                  c0047a60    000000c0     rts6740_elf.lib : fflush.obj (.text:__TI_doflush)
                  c0047b20    000000c0                     : divu.obj (.text:__divu)
                  c0047be0    000000c0                     : remi.obj (.text:__remi)
                  c0047ca0    000000c0     nettool.lib : dhcptags.oe674 (.text:dhcpOptionsClear)
                  c0047d60    000000c0     os.lib : efs.oe674 (.text:efs_fopen)
                  c0047e20    000000c0            : efs.oe674 (.text:efs_internal_remove)
                  c0047ee0    000000c0     ti.drv.emac.ae674 : emac.oe674 (.text:emacLinkUpProcessing)
                  c0047fa0    000000c0     nettool.lib : httpsend.oe674 (.text:httpSendFullResponse)
                  c0048060    000000c0     os.lib : mem_bios6.oe674 (.text:mmZeroInit)
                  c0048120    000000c0     stack.lib : nimuppp.oe674 (.text:pppAddIP)
                  c00481e0    000000c0     app_pe674.oe674 (.text:ti_sysbios_family_c64p_Hwi_Object__create__S)
                  c00482a0    000000c0     app_pe674.oe674 (.text:ti_sysbios_hal_Hwi_Object__create__S)
                  c0048360    000000c0     sysbios.ae674 : BIOS.obj (.text:ti_sysbios_heaps_HeapMem_getStats__E)
                  c0048420    000000c0                   : BIOS.obj (.text:ti_sysbios_knl_Clock_logTick__E)
                  c00484e0    000000c0                   : BIOS.obj (.text:ti_sysbios_knl_Swi_schedule__I)
                  c00485a0    000000c0     app_pe674.oe674 (.text:ti_sysbios_knl_Task_Object__create__S)
                  c0048660    000000c0     rts6740_elf.lib : tls.obj (.text:tls:init:__TI_tls_init)
                  c0048720    000000c0     udpHello.obj (.text)
                  c00487e0    000000c0     ti.targets.rts6000.ae674 : System.oe674 (.text:xdc_runtime_System_formatNum__I)
                  c00488a0    000000a0     ti.board.ae674 : lcdkOMAPL138_pinmux.oe674 (.text:Board_configEmacPinMux$0)
                  c0048940    000000a0                    : lcdkOMAPL138_pinmux.oe674 (.text:Board_configMmcsdPinMux$0)
                  c00489e0    000000a0     nettool.lib : config.oe674 (.text:CfgEntryDeRef)
                  c0048a80    000000a0                 : config.oe674 (.text:CfgEntryGetData)
                  c0048b20    000000a0                 : config.oe674 (.text:CfgGetImmediate)
                  c0048bc0    000000a0                 : telnetd.oe674 (.text:CmdWriteBytes)
                  c0048c60    000000a0                 : telnetd.oe674 (.text:CmdWriteCmd)
                  c0048d00    000000a0     ti.drv.emac.ae674 : emac_drv_v0.oe674 (.text:EMAC_close_v0)
                  c0048da0    000000a0     ti.transport.ndk.nimu.ae674 : nimu_eth.oe674 (.text:EmacPktService$0)
                  c0048e40    000000a0                                 : nimu_eth.oe674 (.text:EmacStop$0)
                  c0048ee0    000000a0     stack.lib : file.oe674 (.text:FdSignalEvent)
                  c0048f80    000000a0     rts6740_elf.lib : hostclose.obj (.text:HOSTclose)
                  c0049020    000000a0     stack.lib : icmpv6in.oe674 (.text:ICMPv6RecvDstUnreachable)
                  c00490c0    000000a0               : ipfrag.oe674 (.text:IPReasmFree)
                  c0049160    000000a0               : ipfrag.oe674 (.text:IPReasmTimeout)
                  c0049200    000000a0               : ipv6.oe674 (.text:IPv6CompareAddress)
                  c00492a0    000000a0               : lliin.oe674 (.text:LLIValidateRoute)
                  c0049340    000000a0               : md5.oe674 (.text:MD5Final)
                  c00493e0    000000a0     ti.drv.emac.ae674 : mdio.oe674 (.text:MDIO_open)
                  c0049480    000000a0     stack.lib : nimu.oe674 (.text:NIMUShutdown)
                  c0049520    000000a0               : nimu.oe674 (.text:NIMUUnregister)
                  c00495c0    000000a0     nettool.lib : ipaddr.oe674 (.text:NtAddNetwork)
                  c0049660    000000a0     ti.osal.ae674 : RegisterIntr_tirtos.oe674 (.text:Osal_DeleteInterrupt)
                  c0049700    000000a0                   : Utils_tirtos.oe674 (.text:Osal_delay)
                  c00497a0    000000a0     os.lib : pbm.oe674 (.text:PBM_open)
                  c0049840    000000a0     ti.drv.emac.ae674 : mdio.oe674 (.text:PHYREG_wait)
                  c00498e0    000000a0     stack.lib : pipe.oe674 (.text:PipeCheck)
                  c0049980    000000a0               : rtable.oe674 (.text:RouteMsg)
                  c0049a20    000000a0               : route.oe674 (.text:RtNew)
                  c0049ac0    000000a0               : sb6.oe674 (.text:SB6Free)
                  c0049b60    000000a0               : sb.oe674 (.text:SBFree)
                  c0049c00    000000a0     os.lib : semaphore_bios6.oe674 (.text:SemCreate)
                  c0049ca0    000000a0     stack.lib : sock6pcb.oe674 (.text:Sock6CleanPcb)
                  c0049d40    000000a0               : sock6.oe674 (.text:Sock6GetName)
                  c0049de0    000000a0               : sock.oe674 (.text:SockBind)
                  c0049e80    000000a0               : sockpcb.oe674 (.text:SockCleanPcb)
                  c0049f20    000000a0               : tcp6prot.oe674 (.text:TCP6Drop)
                  c0049fc0    000000a0               : tcp6prot.oe674 (.text:TCP6PrCtlError)
                  c004a060    000000a0               : tcp6prot.oe674 (.text:TCP6PrSend)
                  c004a100    000000a0               : tcp6prot.oe674 (.text:TCP6PrSendOOB)
                  c004a1a0    000000a0     os.lib : task_bios6.oe674 (.text:TaskCleanup)
                  c004a240    000000a0            : task_bios6.oe674 (.text:TaskCreate)
                  c004a2e0    000000a0     stack.lib : tcpprot.oe674 (.text:TcpDrop)
                  c004a380    000000a0               : tcpprot.oe674 (.text:TcpPrCtlError)
                  c004a420    000000a0               : tcpprot.oe674 (.text:TcpPrSend)
                  c004a4c0    000000a0               : tcpprot.oe674 (.text:TcpPrSendOOB)
                  c004a560    000000a0               : timer.oe674 (.text:TimerNew)
                  c004a600    000000a0     ti.drv.uart.ae674 : UART_drv.oe674 (.text:UART_init)
                  c004a6a0    000000a0                       : UART_stdio.oe674 (.text:UART_stdioInit)
                  c004a740    000000a0                       : UART_v0.oe674 (.text:UART_v0_callback$0)
                  c004a7e0    000000a0                       : UART_v0.oe674 (.text:UART_writeCancelNoCB$0)
                  c004a880    000000a0     stack.lib : lli.oe674 (.text:_LLITimeoutFlush)
                  c004a920    000000a0     rts6740_elf.lib : fopen.obj (.text:__TI_cleanup)
                  c004a9c0    000000a0                     : remu.obj (.text:__remu)
                  c004aa60    000000a0     boot.ae674 : boot.oe674 (.text:_c_int00)
                  c004ab00    000000a0     sysbios.ae674 : c64p_Hwi_asm.obj (.text:_ti_sysbios_family_c64p_Hwi_plug__E)
                  c004aba0    000000a0     stack.lib : auth.oe674 (.text:authStart)
                  c004ac40    000000a0     nettool.lib : dhcpbild.oe674 (.text:dhcpBuildDecline)
                  c004ace0    000000a0                 : dhcpsm.oe674 (.text:dhcpIPRemove)
                  c004ad80    000000a0     ti.drv.emac.ae674 : emac_drv.oe674 (.text:emac_config)
                  c004ae20    000000a0                       : emac_drv.oe674 (.text:emac_open)
                  c004aec0    000000a0                       : emac_drv.oe674 (.text:emac_poll)
                  c004af60    000000a0                       : emac_drv.oe674 (.text:emac_send)
                  c004b000    000000a0     stack.lib : fileuser.oe674 (.text:fdCloseSession)
                  c004b0a0    000000a0               : lcp.oe674 (.text:lcpInit)
                  c004b140    000000a0               : lcp.oe674 (.text:lcpSendTerm)
                  c004b1e0    000000a0     hal_timer_bios.lib : lltimer_bios6.oe674 (.text:llTimerTick)
                  c004b280    000000a0     rts6740_elf.lib : memcpy64.obj (.text:memcpy)
                  c004b320    000000a0     os.lib : mem_bios6.oe674 (.text:mmBulkFree)
                  c004b3c0    000000a0            : mem_bios6.oe674 (.text:mmInitPage)
                  c004b460    000000a0            : ossys.oe674 (.text:stricmp)
                  c004b500    000000a0     rts6740_elf.lib : strstr.obj (.text:strstr)
                  c004b5a0    000000a0     sysbios.ae674 : BIOS.obj (.text:ti_sysbios_family_c64p_Exception_Module_startup__E)
                  c004b640    000000a0     app_pe674.oe674 (.text:ti_sysbios_family_c64p_Hwi_construct)
                  c004b6e0    000000a0     sysbios.ae674 : BIOS.obj (.text:ti_sysbios_family_c64p_Hwi_dispatchC__I)
                  c004b780    000000a0                   : BIOS.obj (.text:ti_sysbios_family_c64p_Hwi_getStackInfo__E)
                  c004b820    000000a0                   : BIOS.obj (.text:ti_sysbios_heaps_HeapMem_init__I)
                  c004b8c0    000000a0                   : BIOS.obj (.text:ti_sysbios_knl_Task_allBlockedFunction__I)
                  c004b960    000000a0                   : BIOS.obj (.text:ti_sysbios_timers_timer64_Timer_stop__E)
                  c004ba00    000000a0     ti.targets.rts6000.ae674 : Assert.oe674 (.text:xdc_runtime_Assert_raise__I)
                  c004baa0    000000a0                              : Error.oe674 (.text:xdc_runtime_Error_setX__E)
                  c004bb40    000000a0     app_pe674.oe674 (.text:xdc_runtime_LoggerBuf_Object__create__S)
                  c004bbe0    000000a0     ti.targets.rts6000.ae674 : Text.oe674 (.text:xdc_runtime_Text_xprintf__I)
                  c004bc80    00000080     ti.board.ae674 : lcdkOMAPL138_clock.oe674 (.text:CSL_PSC_setModuleNextState$0)
                  c004bd00    00000080     stack.lib : md5.oe674 (.text:Decode)
                  c004bd80    00000080     ti.drv.emac.ae674 : emac.oe674 (.text:EMAC_getStatistics)
                  c004be00    00000080                       : emac_drv_v0.oe674 (.text:EMAC_get_stats_v0)
                  c004be80    00000080     ti.transport.ndk.nimu.ae674 : nimu_eth.oe674 (.text:EmacAllocPkt$0)
                  c004bf00    00000080     ti.osal.ae674 : EventCombinerP_tirtos.oe674 (.text:EventCombinerP_getHwi)
                  c004bf80    00000080     stack.lib : icmp.oe674 (.text:ICMPChecksum)
                  c004c000    00000080               : icmpv6in.oe674 (.text:ICMPv6RecvParamProblem)
                  c004c080    00000080               : icmpv6_ndisc.oe674 (.text:ICMPv6RecvRS)
                  c004c100    00000080               : icmpv6in.oe674 (.text:ICMPv6RecvTimeExceeded)
                  c004c180    00000080               : ipv6out.oe674 (.text:IPv6GetRoute)
                  c004c200    00000080               : lli6.oe674 (.text:LLI6Free)
                  c004c280    00000080               : lli6.oe674 (.text:LLI6IsRouterStatMachine)
                  c004c300    00000080     netctrl.lib : netctrl.oe674 (.text:NC_SystemClose)
                  c004c380    00000080     stack.lib : nimu.oe674 (.text:NIMUInit)
                  c004c400    00000080     os.lib : pbm.oe674 (.text:PBMQ_deq)
                  c004c480    00000080     stack.lib : nimuppp.oe674 (.text:PPPSend)
                  c004c500    00000080               : pipe.oe674 (.text:PipeClose)
                  c004c580    00000080               : rawethsock.oe674 (.text:RawEthSockClose)
                  c004c600    00000080               : rawethsock_pcb.oe674 (.text:RawEthSockPcbDetach)
                  c004c680    00000080               : route6.oe674 (.text:Rt6Update)
                  c004c700    00000080               : route.oe674 (.text:RtSetFailure)
                  c004c780    00000080               : route.oe674 (.text:RtSetTimeout)
                  c004c800    00000080               : sock6.oe674 (.text:Sock6Bind)
                  c004c880    00000080               : sock6pcb.oe674 (.text:Sock6PcbCleanup)
                  c004c900    00000080               : sock.oe674 (.text:SockGetName)
                  c004c980    00000080               : sockpcb.oe674 (.text:SockPcbCleanup)
                  c004ca00    00000080               : sockpcb.oe674 (.text:SockPcbDetach)
                  c004ca80    00000080               : sockpcb.oe674 (.text:SockPcbResolveChain)
                  c004cb00    00000080               : tcp6prot.oe674 (.text:TCP6PrListen)
                  c004cb80    00000080     os.lib : task_bios6.oe674 (.text:TaskSetEnv)
                  c004cc00    00000080     stack.lib : tcpprot.oe674 (.text:TcpPrListen)
                  c004cc80    00000080               : timer.oe674 (.text:TimerHSTick)
                  c004cd00    00000080               : timer.oe674 (.text:TimerListRemove)
                  c004cd80    00000080     ti.csl.ae674 : uart.oe674 (.text:UART_charPut_v0)
                  c004ce00    00000080     nettool.lib : config.oe674 (.text:_CfgAcquire)
                  c004ce80    00000080                 : config.oe674 (.text:_CfgRelease)
                  c004cf00    00000080     stack.lib : lli.oe674 (.text:_LLIExpListRemove)
                  c004cf80    00000080               : rtc.oe674 (.text:_RTCSendRtAdv)
                  c004d000    00000080               : rtable.oe674 (.text:_RtExpListRemove)
                  c004d080    00000080     rts6740_elf.lib : trgmsg.obj (.text:__TI_readmsg)
                  c004d100    00000080                     : llshift.obj (.text:__c6xabi_llshl)
                  c004d180    00000080     sysbios.ae674 : c62_TaskSupport_asm.obj (.text:_ti_sysbios_family_c62_TaskSupport_swap__E)
                  c004d200    00000080     os.lib : efs.oe674 (.text:efs_fclose)
                  c004d280    00000080            : efs.oe674 (.text:efs_filesend)
                  c004d300    00000080            : efs.oe674 (.text:efs_findfile)
                  c004d380    00000080     stack.lib : file.oe674 (.text:fdint_waitevent)
                  c004d400    00000080     rts6740_elf.lib : getdevice.obj (.text:finddevice)
                  c004d480    00000080     nettool.lib : httpsend.oe674 (.text:httpSendEntityLength)
                  c004d500    00000080                 : httpsend.oe674 (.text:httpSendErrorResponse)
                  c004d580    00000080     hal_timer_bios.lib : lltimer_bios6.oe674 (.text:llTimerGetTime)
                  c004d600    00000080     nettool.lib : httpsend.oe674 (.text:strcat)
                  c004d680    00000080     app_pe674.oe674 (.text:ti_sysbios_BIOS_atExitFunc__I)
                  c004d700    00000080     app_pe674.oe674 (.text:ti_sysbios_BIOS_registerRTSLock__I)
                  c004d780    00000080     sysbios.ae674 : BIOS.obj (.text:ti_sysbios_family_c64p_Cache_invL1pAll__E)
                  c004d800    00000080     app_pe674.oe674 (.text:ti_sysbios_gates_GateHwi_Object__create__S)
                  c004d880    00000080     app_pe674.oe674 (.text:ti_sysbios_gates_GateMutex_Object__create__S)
                  c004d900    00000080     sysbios.ae674 : BIOS.obj (.text:ti_sysbios_hal_Hwi_checkStack)
                  c004d980    00000080                   : BIOS.obj (.text:ti_sysbios_hal_Hwi_initStack)
                  c004da00    00000080     app_pe674.oe674 (.text:ti_sysbios_heaps_HeapMem_Object__create__S)
                  c004da80    00000080     app_pe674.oe674 (.text:ti_sysbios_knl_Clock_create)
                  c004db00    00000080     app_pe674.oe674 (.text:ti_sysbios_knl_Clock_doTick__I)
                  c004db80    00000080     sysbios.ae674 : BIOS.obj (.text:ti_sysbios_knl_Idle_run__E)
                  c004dc00    00000080     app_pe674.oe674 (.text:ti_sysbios_knl_Semaphore_Object__create__S)
                  c004dc80    00000080     sysbios.ae674 : BIOS.obj (.text:ti_sysbios_knl_Semaphore_pendTimeout__I)
                  c004dd00    00000080                   : BIOS.obj (.text:ti_sysbios_knl_Swi_startup__E)
                  c004dd80    00000080                   : BIOS.obj (.text:ti_sysbios_knl_Task_restore__E)
                  c004de00    00000080     rts6740_elf.lib : unlink.obj (.text:unlink)
                  c004de80    00000080     ti.targets.rts6000.ae674 : Core-label.oe674 (.text:xdc_runtime_Core_assignLabel__I)
                  c004df00    00000080                              : Core-params.oe674 (.text:xdc_runtime_Core_assignParams__I)
                  c004df80    00000080                              : LoggerBuf.oe674 (.text:xdc_runtime_LoggerBuf_Instance_init__E)
                  c004e000    00000080                              : LoggerBuf.oe674 (.text:xdc_runtime_LoggerBuf_Module_startup__E)
                  c004e080    00000080                              : LoggerBuf.oe674 (.text:xdc_runtime_LoggerBuf_filterOutEvent__I)
                  c004e100    00000080                              : System.oe674 (.text:xdc_runtime_System_atexit__E)
                  c004e180    00000080                              : System.oe674 (.text:xdc_runtime_System_processAtExit__E)
                  c004e200    00000080                              : System.oe674 (.text:xdc_runtime_System_putchar__I)
                  c004e280    00000080                              : Text.oe674 (.text:xdc_runtime_Text_printVisFxn__I)
                  c004e300    00000060     stack.lib : bind6.oe674 (.text:Bind6FindByIF)
                  c004e360    00000060               : bind6.oe674 (.text:Bind6IF2IPHost)
                  c004e3c0    00000060               : bind.oe674 (.text:BindFindByHost)
                  c004e420    00000060               : bind.oe674 (.text:BindFindByIF)
                  c004e480    00000060               : bind.oe674 (.text:BindFindByNet)
                  c004e4e0    00000060               : bind.oe674 (.text:BindGetIFByDBCast)
                  c004e540    00000060               : bind.oe674 (.text:BindIF2IPHost)
                  c004e5a0    00000060     nettool.lib : config.oe674 (.text:CfgEntryInfo)
                  c004e600    00000060                 : config.oe674 (.text:CfgSetService)
                  c004e660    00000060     stack.lib : md5.oe674 (.text:Encode)
                  c004e6c0    00000060               : exec.oe674 (.text:ExecBroadcast)
                  c004e720    00000060     ti.osal.ae674 : HwiP_tirtos.oe674 (.text:HwiP_delete)
                  c004e780    00000060     stack.lib : igmp.oe674 (.text:IGMPTestGroup)
                  c004e7e0    00000060               : ip.oe674 (.text:IPChecksum)
                  c004e840    00000060               : lli.oe674 (.text:LLIFree)
                  c004e8a0    00000060               : nimu.oe674 (.text:NIMUAddHeader)
                  c004e900    00000060               : nimu.oe674 (.text:NIMUCreatePacket)
                  c004e960    00000060               : nimu.oe674 (.text:NIMUFindByIndex)
                  c004e9c0    00000060               : nimu.oe674 (.text:NIMUPacketService)
                  c004ea20    00000060               : nimu.oe674 (.text:NIMUPacketServiceCheck)
                  c004ea80    00000060               : nimu.oe674 (.text:NIMUSendPacket)
                  c004eae0    00000060     netctrl.lib : netsrv.oe674 (.text:NS_PreBoot)
                  c004eb40    00000060     ti.osal.ae674 : Utils_tirtos.oe674 (.text:Osal_getThreadType)
                  c004eba0    00000060     stack.lib : rtc.oe674 (.text:RTCAddHook)
                  c004ec00    00000060               : rtc.oe674 (.text:RTCRemoveHook)
                  c004ec60    00000060               : rawethsock_pcb.oe674 (.text:RawEthSockPcbCleanup)
                  c004ecc0    00000060               : rawethsock_pcb.oe674 (.text:RawEthSockPcbFind)
                  c004ed20    00000060               : route6.oe674 (.text:Rt6GetNetworkAddr)
                  c004ed80    00000060               : rtable.oe674 (.text:RtWalkEnd)
                  c004ede0    00000060     ti.osal.ae674 : SemaphoreP_tirtos.oe674 (.text:SemaphoreP_delete)
                  c004ee40    00000060     netctrl.lib : netsrv.oe674 (.text:ServiceCallback)
                  c004eea0    00000060     stack.lib : sock6pcb.oe674 (.text:Sock6PcbDetach)
                  c004ef00    00000060               : sock6prot.oe674 (.text:Sock6PrCtlError)
                  c004ef60    00000060               : sock6prot.oe674 (.text:Sock6PrDetach)
                  c004efc0    00000060               : sockprot.oe674 (.text:SockPrCtlError)
                  c004f020    00000060               : sockprot.oe674 (.text:SockPrDetach)
                  c004f080    00000060               : tcp6prot.oe674 (.text:TCP6PrConnect)
                  c004f0e0    00000060               : tcp6time.oe674 (.text:TCP6SetPersist)
                  c004f140    00000060               : tcp6time.oe674 (.text:TCP6TimeoutPersist)
                  c004f1a0    00000060     os.lib : task_bios6.oe674 (.text:TaskDestroy)
                  c004f200    00000060     stack.lib : tcpprot.oe674 (.text:TcpPrConnect)
                  c004f260    00000060               : tcptime.oe674 (.text:TcpSetPersist)
                  c004f2c0    00000060               : tcptime.oe674 (.text:TcpTimeoutPersist)
                  c004f320    00000060     ti.csl.ae674 : uart.oe674 (.text:UART_divisorLatchWrite_v0)
                  c004f380    00000060                  : uart.oe674 (.text:UART_fifoWait_v0)
                  c004f3e0    00000060     ti.drv.uart.ae674 : UART_v0.oe674 (.text:UART_getRxTrigLvl_v0$0)
                  c004f440    00000060     ti.csl.ae674 : uart.oe674 (.text:UART_lineCharacConfig_v0)
                  c004f4a0    00000060     ti.drv.uart.ae674 : UART_v0.oe674 (.text:UART_readCancel_v0$0)
                  c004f500    00000060                       : UART_v0.oe674 (.text:UART_writeCancel_v0$0)
                  c004f560    00000060     stack.lib : vlan.oe674 (.text:VLANFindNode)
                  c004f5c0    00000060               : vlan.oe674 (.text:VLANFindSourceInterface)
                  c004f620    00000060               : vlan.oe674 (.text:VLANInit)
                  c004f680    00000060     nettool.lib : config.oe674 (.text:_CfgEntryProcess)
                  c004f6e0    00000060     rts6740_elf.lib : trgmsg.obj (.text:__TI_writemsg)
                  c004f740    00000060                     : llshift.obj (.text:__c6xabi_llshru)
                  c004f7a0    00000060                     : imath64.obj (.text:_subcull)
                  c004f800    00000060     sysbios.ae674 : c64p_Hwi_asm_switch.obj (.text:_ti_sysbios_family_c64p_Hwi_switchAndDispatch__I)
                  c004f860    00000060                   : c64p_Hwi_asm_switch.obj (.text:_ti_sysbios_family_xxx_Hwi_switchAndRunFunc)
                  c004f8c0    00000060     nettool.lib : dhcpbild.oe674 (.text:dhcpBuildDiscover)
                  c004f920    00000060                 : dhcpsock.oe674 (.text:dhcpPacketReceive)
                  c004f980    00000060                 : dhcpsock.oe674 (.text:dhcpPacketSend)
                  c004f9e0    00000060                 : dhcpsock.oe674 (.text:dhcpSocketClose)
                  c004fa40    00000060     ti.drv.emac.ae674 : emac_drv.oe674 (.text:emac_close)
                  c004faa0    00000060                       : emac_drv_v0.oe674 (.text:emac_status_update)
                  c004fb00    00000060     stack.lib : file.oe674 (.text:fdint_clearevent)
                  c004fb60    00000060               : file.oe674 (.text:fdint_getfdt)
                  c004fbc0    00000060               : file.oe674 (.text:fdint_setevent)
                  c004fc20    00000060               : fileuser.oe674 (.text:fdsetTestEntry)
                  c004fc80    00000060     nettool.lib : httpsend.oe674 (.text:httpSendClientStr)
                  c004fce0    00000060     stack.lib : ipcp.oe674 (.text:ipcpInit)
                  c004fd40    00000060               : ipcp.oe674 (.text:ipcpStart)
                  c004fda0    00000060               : lcp.oe674 (.text:lcpClose)
                  c004fe00    00000060               : listlib.oe674 (.text:list_cat)
                  c004fe60    00000060               : listlib.oe674 (.text:list_remove_node)
                  c004fec0    00000060     rts6740_elf.lib : lseek.obj (.text:lseek)
                  c004ff20    00000060     app_pe674.oe674 (.text:malloc)
                  c004ff80    00000060     os.lib : mem_bios6.oe674 (.text:mmUnInitPage)
                  c004ffe0    00000060     stack.lib : nimupppoe.oe674 (.text:pppoeInput)
                  c0050040    00000060     miniPrintf.lib : miniPrintf.oe674 (.text:printf)
                  c00500a0    00000060     stack.lib : socket.oe674 (.text:recvncfree)
                  c0050100    00000060     nettool.lib : httpsend.oe674 (.text:strcpy)
                  c0050160    00000060     rts6740_elf.lib : strcpy.obj (.text:strcpy)
                  c00501c0    00000060     app_pe674.oe674 (.text:ti_ndk_config_Global_stackThread)
                  c0050220    00000060     app_pe674.oe674 (.text:ti_sysbios_BIOS_errorRaiseHook__I)
                  c0050280    00000060     app_pe674.oe674 (.text:ti_sysbios_BIOS_removeRTSLock__I)
                  c00502e0    00000060     app_pe674.oe674 (.text:ti_sysbios_BIOS_startFunc__I)
                  c0050340    00000060     sysbios.ae674 : BIOS.obj (.text:ti_sysbios_family_c62_TaskSupport_start__E)
                  c00503a0    00000060                   : BIOS.obj (.text:ti_sysbios_family_c64p_Cache_setMar__E)
                  c0050400    00000060                   : BIOS.obj (.text:ti_sysbios_family_c64p_EventCombiner_unused__E)
                  c0050460    00000060     app_pe674.oe674 (.text:ti_sysbios_family_c64p_Hwi_Object__delete__S)
                  c00504c0    00000060     app_pe674.oe674 (.text:ti_sysbios_gates_GateMutex_Object__delete__S)
                  c0050520    00000060     sysbios.ae674 : BIOS.obj (.text:ti_sysbios_hal_Hwi_Instance_init__E)
                  c0050580    00000060                   : BIOS.obj (.text:ti_sysbios_heaps_HeapMem_free__E)
                  c00505e0    00000060                   : BIOS.obj (.text:ti_sysbios_knl_Clock_Module_startup__E)
                  c0050640    00000060     app_pe674.oe674 (.text:ti_sysbios_knl_Queue_construct)
                  c00506a0    00000060     app_pe674.oe674 (.text:ti_sysbios_knl_Semaphore_Object__delete__S)
                  c0050700    00000060     app_pe674.oe674 (.text:ti_sysbios_knl_Semaphore_construct)
                  c0050760    00000060     sysbios.ae674 : BIOS.obj (.text:ti_sysbios_knl_Swi_Module_startup__E)
                  c00507c0    00000060     app_pe674.oe674 (.text:ti_sysbios_knl_Task_Object__delete__S)
                  c0050820    00000060     sysbios.ae674 : BIOS.obj (.text:ti_sysbios_knl_Task_enter__I)
                  c0050880    00000060     ti.drv.uart.ae674 : UART_stdio.oe674 (.text:uart_console_putc$0)
                  c00508e0    00000060     rts6740_elf.lib : write.obj (.text:write)
                  c0050940    00000060     app_pe674.oe674 (.text:xdc_runtime_LoggerBuf_Object__delete__S)
                  c00509a0    00000060     ti.targets.rts6000.ae674 : Memory.oe674 (.text:xdc_runtime_Memory_valloc__E)
                  c0050a00    00000060                              : SysStd.oe674 (.text:xdc_runtime_SysStd_abort__E)
                  c0050a60    00000060                              : System.oe674 (.text:xdc_runtime_System_avprintf__E)
                  c0050ac0    00000060                              : System.oe674 (.text:xdc_runtime_System_vprintf__E)
                  c0050b20    00000060                              : Text.oe674 (.text:xdc_runtime_Text_cordText__E)
                  c0050b80    00000040     stack.lib : bind6.oe674 (.text:Bind6FindByHost)
                  c0050bc0    00000040               : bind6.oe674 (.text:Bind6FindByNet)
                  c0050c00    00000040               : bind.oe674 (.text:BindGetIP)
                  c0050c40    00000040     ti.transport.ndk.nimu.ae674 : nimu_eth.oe674 (.text:EmacPoll$0)
                  c0050c80    00000040     stack.lib : exec.oe674 (.text:ExecClose)
                  c0050cc0    00000040               : exec.oe674 (.text:ExecTimer)
                  c0050d00    00000040               : ipv6.oe674 (.text:IPv6IsLinkLocal)
                  c0050d40    00000040               : ipv6.oe674 (.text:IPv6IsMulticast)
                  c0050d80    00000040               : lli6.oe674 (.text:LLI6IsValid)
                  c0050dc0    00000040               : md5.oe674 (.text:MD5Init)
                  c0050e00    00000040               : mld.oe674 (.text:MLDTestGroup)
                  c0050e40    00000040     ti.osal.ae674 : MuxIntcP_tirtos.oe674 (.text:MuxIntcP_create)
                  c0050e80    00000040     netctrl.lib : netctrl.oe674 (.text:NC_BootComplete)
                  c0050ec0    00000040     os.lib : task_bios6.oe674 (.text:NDK_hookCreate)
                  c0050f00    00000040     nettool.lib : ipaddr.oe674 (.text:NtRemoveNetwork)
                  c0050f40    00000040     ti.osal.ae674 : RegisterIntr_tirtos.oe674 (.text:Osal_RegisterInterrupt_initParams)
                  c0050f80    00000040                   : Utils_tirtos.oe674 (.text:Osal_getHwAttrs)
                  c0050fc0    00000040     ti.drv.emac.ae674 : mdio.oe674 (.text:PHYREG_read)
                  c0051000    00000040     stack.lib : nimuppp.oe674 (.text:PPPStart)
                  c0051040    00000040     nettool.lib : ipaddr.oe674 (.text:RouteHook)
                  c0051080    00000040     stack.lib : route6.oe674 (.text:Rt6IsDefaultRoute)
                  c00510c0    00000040     ti.osal.ae674 : SemaphoreP_tirtos.oe674 (.text:SemaphoreP_Params_init)
                  c0051100    00000040                   : SemaphoreP_tirtos.oe674 (.text:SemaphoreP_pend)
                  c0051140    00000040                   : SemaphoreP_tirtos.oe674 (.text:SemaphoreP_post)
                  c0051180    00000040     stack.lib : sock6pcb.oe674 (.text:Sock6PcbAttach)
                  c00511c0    00000040               : sock6int.oe674 (.text:Sock6SetOOBMark)
                  c0051200    00000040               : sockpcb.oe674 (.text:SockPcbAttach)
                  c0051240    00000040               : sockint.oe674 (.text:SockSetOOBMark)
                  c0051280    00000040               : tcp6.oe674 (.text:TCP6TimeoutRemove)
                  c00512c0    00000040               : tcp6time.oe674 (.text:TCP6TimeoutWait2)
                  c0051300    00000040               : tcp.oe674 (.text:TcpTimeoutRemove)
                  c0051340    00000040               : tcptime.oe674 (.text:TcpTimeoutWait2)
                  c0051380    00000040     ti.csl.ae674 : uart.oe674 (.text:UART_breakCtl_v0)
                  c00513c0    00000040                  : uart.oe674 (.text:UART_charGetNonBlocking_v0)
                  c0051400    00000040                  : uart.oe674 (.text:UART_divisorValCompute_v0)
                  c0051440    00000040                  : uart.oe674 (.text:UART_fIFOConfig_v0)
                  c0051480    00000040                  : uart.oe674 (.text:UART_fIFORegisterWrite_v0)
                  c00514c0    00000040                  : uart.oe674 (.text:UART_intDisable_v0)
                  c0051500    00000040                  : uart.oe674 (.text:UART_intEnable_v0)
                  c0051540    00000040                  : uart.oe674 (.text:UART_intIdentityGet_v0)
                  c0051580    00000040                  : uart.oe674 (.text:UART_loopbackModeControl_v0)
                  c00515c0    00000040     ti.drv.uart.ae674 : UART_drv.oe674 (.text:UART_open)
                  c0051600    00000040     ti.csl.ae674 : uart.oe674 (.text:UART_readLineStatus_v0)
                  c0051640    00000040     ti.osal.ae674 : Utils_tirtos.oe674 (.text:_DebugP_assert)
                  c0051680    00000040     rts6740_elf.lib : strasg.obj (.text:__strasgi_64plus)
                  c00516c0    00000040                     : args_main.obj (.text:_args_main)
                  c0051700    00000040     hal_timer_bios.lib : lltimer_bios6.oe674 (.text:_llTimerInit)
                  c0051740    00000040     sysbios.ae674 : c62_TaskSupport_asm.obj (.text:_ti_sysbios_family_c62_TaskSupport_buildTaskStack)
                  c0051780    00000040     os.lib : efs.oe674 (.text:efs_loadfunction)
                  c00517c0    00000040     ti.drv.emac.ae674 : emac_drv_v0.oe674 (.text:emac_statistics_update)
                  c0051800    00000040     stack.lib : fileuser.oe674 (.text:fdSelectAbort)
                  c0051840    00000040               : file.oe674 (.text:fdint_freefdt)
                  c0051880    00000040     app_pe674.oe674 (.text:free)
                  c00518c0    00000040     nettool.lib : inetaddr.oe674 (.text:inet_addr)
                  c0051900    00000040     stack.lib : listlib.oe674 (.text:list_add)
                  c0051940    00000040               : listlib.oe674 (.text:list_remove)
                  c0051980    00000040     rts6740_elf.lib : fputs.obj (.text:puts)
                  c00519c0    00000040     miniPrintf.lib : miniPrintf.oe674 (.text:sprintf)
                  c0051a00    00000040     rts6740_elf.lib : strlen.obj (.text:strlen)
                  c0051a40    00000040     app_pe674.oe674 (.text:ti_sysbios_BIOS_exitFunc__I)
                  c0051a80    00000040     app_pe674.oe674 (.text:ti_sysbios_BIOS_rtsLock__I)
                  c0051ac0    00000040     app_pe674.oe674 (.text:ti_sysbios_BIOS_rtsUnlock__I)
                  c0051b00    00000040     sysbios.ae674 : BIOS.obj (.text:ti_sysbios_family_c64p_EventCombiner_Module_startup__E)
                  c0051b40    00000040                   : BIOS.obj (.text:ti_sysbios_family_c64p_EventCombiner_disableEvent__E)
                  c0051b80    00000040                   : BIOS.obj (.text:ti_sysbios_family_c64p_EventCombiner_enableEvent__E)
                  c0051bc0    00000040     app_pe674.oe674 (.text:ti_sysbios_family_c64p_Hwi_Object__destruct__S)
                  c0051c00    00000040     sysbios.ae674 : BIOS.obj (.text:ti_sysbios_family_c64p_Hwi_disableInterrupt__E)
                  c0051c40    00000040                   : BIOS.obj (.text:ti_sysbios_family_c64p_Hwi_enableInterrupt__E)
                  c0051c80    00000040                   : BIOS.obj (.text:ti_sysbios_family_c64p_Hwi_getEventId__E)
                  c0051cc0    00000040                   : BIOS.obj (.text:ti_sysbios_family_c64p_primus_TimerSupport_enable__E)
                  c0051d00    00000040     app_pe674.oe674 (.text:ti_sysbios_gates_GateHwi_Handle__label__S)
                  c0051d40    00000040     app_pe674.oe674 (.text:ti_sysbios_gates_GateHwi_Object__delete__S)
                  c0051d80    00000040     app_pe674.oe674 (.text:ti_sysbios_gates_GateMutex_Handle__label__S)
                  c0051dc0    00000040     sysbios.ae674 : BIOS.obj (.text:ti_sysbios_gates_GateMutex_Instance_init__E)
                  c0051e00    00000040                   : BIOS.obj (.text:ti_sysbios_gates_GateMutex_leave__E)
                  c0051e40    00000040     app_pe674.oe674 (.text:ti_sysbios_hal_Hwi_HwiProxy_create)
                  c0051e80    00000040     app_pe674.oe674 (.text:ti_sysbios_heaps_HeapMem_Handle__label__S)
                  c0051ec0    00000040     app_pe674.oe674 (.text:ti_sysbios_heaps_HeapMem_Object__delete__S)
                  c0051f00    00000040     app_pe674.oe674 (.text:ti_sysbios_heaps_HeapMem_Object__get__S)
                  c0051f40    00000040     app_pe674.oe674 (.text:ti_sysbios_knl_Semaphore_Object__destruct__S)
                  c0051f80    00000040     app_pe674.oe674 (.text:ti_sysbios_knl_Swi_Object__get__S)
                  c0051fc0    00000040     app_pe674.oe674 (.text:ti_sysbios_knl_Task_Object__get__S)
                  c0052000    00000040     sysbios.ae674 : BIOS.obj (.text:ti_sysbios_knl_Task_sleepTimeout__I)
                  c0052040    00000040     ti.targets.rts6000.ae674 : Error.oe674 (.text:xdc_runtime_Error_check__E)
                  c0052080    00000040                              : Error.oe674 (.text:xdc_runtime_Error_init__E)
                  c00520c0    00000040     app_pe674.oe674 (.text:xdc_runtime_LoggerBuf_Handle__label__S)
                  c0052100    00000040     ti.targets.rts6000.ae674 : LoggerBuf.oe674 (.text:xdc_runtime_LoggerBuf_Instance_finalize__E)
                  c0052140    00000040     app_pe674.oe674 (.text:xdc_runtime_LoggerBuf_Object__get__S)
                  c0052180    00000040     ti.targets.rts6000.ae674 : LoggerBuf.oe674 (.text:xdc_runtime_LoggerBuf_reset__E)
                  c00521c0    00000040                              : LoggerBuf.oe674 (.text:xdc_runtime_LoggerBuf_write0__E)
                  c0052200    00000040                              : Memory.oe674 (.text:xdc_runtime_Memory_free__E)
                  c0052240    00000040                              : Registry.oe674 (.text:xdc_runtime_Registry_findById__E)
                  c0052280    00000040                              : System.oe674 (.text:xdc_runtime_System_abort__E)
                  c00522c0    00000040     app_pe674.oe674 (.text:xdc_runtime_System_aprintf__E)
                  c0052300    00000040     ti.targets.rts6000.ae674 : System.oe674 (.text:xdc_runtime_System_exit__E)
                  c0052340    00000040     app_pe674.oe674 (.text:xdc_runtime_System_printf__E)
                  c0052380    00000040     ti.targets.rts6000.ae674 : Text.oe674 (.text:xdc_runtime_Text_ropeText__E)
                  c00523c0    00000020     stack.lib : bind6.oe674 (.text:Bind6GetInterfaceHandle)
                  c00523e0    00000020               : bind6.oe674 (.text:Bind6GetLifetime)
                  c0052400    00000020               : bind6.oe674 (.text:Bind6SetLifetime)
                  c0052420    00000020               : bind.oe674 (.text:BindGetFirst)
                  c0052440    00000020               : bind.oe674 (.text:BindGetIF)
                  c0052460    00000020               : bind.oe674 (.text:BindGetNext)
                  c0052480    00000020               : bind.oe674 (.text:BindIFNet2IPHost)
                  c00524a0    00000020               : bind.oe674 (.text:BindIPHost2IF)
                  c00524c0    00000020     ti.board.ae674 : lcdkOMAPL138_pll.oe674 (.text:Board_PLLInit)
                  c00524e0    00000020                    : lcdkOMAPL138_lld_init.oe674 (.text:Board_uartStdioInit)
                  c0052500    00000020     nettool.lib : config.oe674 (.text:CfgSetDefault)
                  c0052520    00000020     ti.transport.ndk.nimu.ae674 : nimu_eth.oe674 (.text:EmacFreePkt$0)
                  c0052540    00000020                                 : nimu_eth.oe674 (.text:EmacInit$0)
                  c0052560    00000020                                 : nimu_eth.oe674 (.text:EmacRx0Int$0)
                  c0052580    00000020                                 : nimu_eth.oe674 (.text:EmacTx0Int$0)
                  c00525a0    00000020     ti.osal.ae674 : EventCombinerP_tirtos.oe674 (.text:EventCombinerP_disableEvent)
                  c00525c0    00000020                   : EventCombinerP_tirtos.oe674 (.text:EventCombinerP_dispatchPlug)
                  c00525e0    00000020                   : EventCombinerP_tirtos.oe674 (.text:EventCombinerP_enableEvent)
                  c0052600    00000020     stack.lib : exec.oe674 (.text:ExecHRef)
                  c0052620    00000020               : exec.oe674 (.text:ExecLowResource)
                  c0052640    00000020     ti.osal.ae674 : HwiP_tirtos.oe674 (.text:HwiP_disable)
                  c0052660    00000020                   : HwiP_tirtos.oe674 (.text:HwiP_restore)
                  c0052680    00000020     stack.lib : ip.oe674 (.text:IPRtChange)
                  c00526a0    00000020     hal_userled_stub.lib : llled.oe674 (.text:LED_TOGGLE)
                  c00526c0    00000020     stack.lib : lli6.oe674 (.text:LLI6GetNetDevice)
                  c00526e0    00000020               : lli6.oe674 (.text:LLI6IncRefCount)
                  c0052700    00000020               : lli6.oe674 (.text:LLI6IsDead)
                  c0052720    00000020               : lli6.oe674 (.text:LLI6IsRouter)
                  c0052740    00000020               : lli6.oe674 (.text:LLI6SetIncomplete)
                  c0052760    00000020     ti.targets.rts6000.ae674 : LoggerBuf.oe674 (.text:LoggerBuf_instanceStartup)
                  c0052780    00000020     ti.drv.emac.ae674 : mdio.oe674 (.text:MDIO_getStatus)
                  c00527a0    00000020                       : mdio.oe674 (.text:MDIO_initPHY)
                  c00527c0    00000020     netctrl.lib : netctrl.oe674 (.text:NC_IPUpdate)
                  c00527e0    00000020                 : netctrl.oe674 (.text:NC_NetStop)
                  c0052800    00000020     os.lib : task_bios6.oe674 (.text:NDK_hookInit)
                  c0052820    00000020     stack.lib : nimu.oe674 (.text:NIMUGetRsvdSizeInfo)
                  c0052840    00000020               : nimu.oe674 (.text:NIMUSetRsvdSizeInfo)
                  c0052860    00000020               : nat.oe674 (.text:NatMsg)
                  c0052880    00000020               : node.oe674 (.text:NodeGetRt)
                  c00528a0    00000020               : node.oe674 (.text:NodeSetRt)
                  c00528c0    00000020     os.lib : task_bios6.oe674 (.text:NotifyLowResource)
                  c00528e0    00000020            : oem_bios6.oe674 (.text:OEMCacheClean)
                  c0052900    00000020            : pbm.oe674 (.text:PBM_close)
                  c0052920    00000020     stack.lib : rawethsock_pcb.oe674 (.text:RawEthSockPcbInit)
                  c0052940    00000020               : rawethsock_prot.oe674 (.text:RawEthSockPrAttach)
                  c0052960    00000020               : rawethsock_prot.oe674 (.text:RawEthSockPrDetach)
                  c0052980    00000020               : route6.oe674 (.text:Rt6GetIF)
                  c00529a0    00000020               : route6.oe674 (.text:Rt6GetLLI)
                  c00529c0    00000020               : route6.oe674 (.text:Rt6GetMTU)
                  c00529e0    00000020               : route6.oe674 (.text:Rt6IncRefCount)
                  c0052a00    00000020               : route6.oe674 (.text:Rt6IsLocalRoute)
                  c0052a20    00000020     os.lib : semaphore_bios6.oe674 (.text:SemDelete)
                  c0052a40    00000020            : semaphore_bios6.oe674 (.text:SemPend)
                  c0052a60    00000020            : semaphore_bios6.oe674 (.text:SemPost)
                  c0052a80    00000020            : semaphore_bios6.oe674 (.text:SemReset)
                  c0052aa0    00000020     stack.lib : sock6prot.oe674 (.text:Sock6PrAttach)
                  c0052ac0    00000020               : sock6int.oe674 (.text:Sock6SetOOBData)
                  c0052ae0    00000020               : sockprot.oe674 (.text:SockPrAttach)
                  c0052b00    00000020               : sockint.oe674 (.text:SockSetOOBData)
                  c0052b20    00000020               : tcp6prot.oe674 (.text:TCP6PrRecv)
                  c0052b40    00000020               : tcp6.oe674 (.text:TCP6TimeoutAdd)
                  c0052b60    00000020     os.lib : task_bios6.oe674 (.text:TaskBlock)
                  c0052b80    00000020            : task_bios6.oe674 (.text:TaskExit)
                  c0052ba0    00000020            : task_bios6.oe674 (.text:TaskSelf)
                  c0052bc0    00000020            : task_bios6.oe674 (.text:TaskSetPri)
                  c0052be0    00000020     stack.lib : tcpprot.oe674 (.text:TcpPrRecv)
                  c0052c00    00000020               : tcp.oe674 (.text:TcpTimeoutAdd)
                  c0052c20    00000020               : timer.oe674 (.text:TimerFree)
                  c0052c40    00000020     ti.drv.uart.ae674 : UART_drv.oe674 (.text:UART_Params_init)
                  c0052c60    00000020                       : UART_v0.oe674 (.text:UART_control_v0$0)
                  c0052c80    00000020     ti.csl.ae674 : uart.oe674 (.text:UART_divisorLatchDisable_v0)
                  c0052ca0    00000020                  : uart.oe674 (.text:UART_fIFOCharPut_v0)
                  c0052cc0    00000020                  : uart.oe674 (.text:UART_fifoEmpty_v0)
                  c0052ce0    00000020     ti.drv.uart.ae674 : UART_v0.oe674 (.text:UART_init_v0$0)
                  c0052d00    00000020     ti.csl.ae674 : uart.oe674 (.text:UART_operatingModeSelect_v0)
                  c0052d20    00000020                  : uart.oe674 (.text:UART_pwremuConfig_v0)
                  c0052d40    00000020     ti.drv.uart.ae674 : UART_drv.oe674 (.text:UART_write)
                  c0052d60    00000020                       : UART_drv.oe674 (.text:UART_writePolling)
                  c0052d80    00000020     os.lib : task_bios6.oe674 (.text:_TaskInit)
                  c0052da0    00000020            : task_bios6.oe674 (.text:_TaskShutdown)
                  c0052dc0    00000020     hal_ser_stub.lib : llserstb.oe674 (.text:_llSerialInit)
                  c0052de0    00000020                      : llserstb.oe674 (.text:_llSerialServiceCheck)
                  c0052e00    00000020                      : llserstb.oe674 (.text:_llSerialShutdown)
                  c0052e20    00000020     hal_timer_bios.lib : lltimer_bios6.oe674 (.text:_llTimerShutdown)
                  c0052e40    00000020     hal_userled_stub.lib : llled.oe674 (.text:_llUserLedInit)
                  c0052e60    00000020                          : llled.oe674 (.text:_llUserLedShutdown)
                  c0052e80    00000020     rts6740_elf.lib : _lock.obj (.text:_nop)
                  c0052ea0    00000020                     : _lock.obj (.text:_register_lock)
                  c0052ec0    00000020                     : _lock.obj (.text:_register_unlock)
                  c0052ee0    00000020     sysbios.ae674 : c62_TaskSupport_asm.obj (.text:_ti_sysbios_family_c62_TaskSupport_glue)
                  c0052f00    00000020     rts6740_elf.lib : exit.obj (.text:abort)
                  c0052f20    00000020                     : copy_decompress_none.obj (.text:decompress:none:__TI_decompress_none)
                  c0052f40    00000020                     : copy_decompress_rle.obj (.text:decompress:rle24:__TI_decompress_rle24)
                  c0052f60    00000020     os.lib : efs.oe674 (.text:efs_getfilesize)
                  c0052f80    00000020     stack.lib : file.oe674 (.text:fdint_signaltimeout)
                  c0052fa0    00000020               : listlib.oe674 (.text:list_get_head)
                  c0052fc0    00000020               : listlib.oe674 (.text:list_get_next)
                  c0052fe0    00000020     hal_ser_stub.lib : llserstb.oe674 (.text:llSerialService)
                  c0053000    00000020     hal_timer_bios.lib : lltimer_bios6.oe674 (.text:llTimerGetStartTime)
                  c0053020    00000020     rts6740_elf.lib : fputc.obj (.text:putchar)
                  c0053040    00000020     app_pe674.oe674 (.text:ti_sysbios_BIOS_RtsGateProxy_enter__E)
                  c0053060    00000020     app_pe674.oe674 (.text:ti_sysbios_BIOS_RtsGateProxy_leave__E)
                  c0053080    00000020     sysbios.ae674 : BIOS.obj (.text:ti_sysbios_BIOS_getCpuFreq__E)
                  c00530a0    00000020                   : BIOS.obj (.text:ti_sysbios_BIOS_getThreadType__E)
                  c00530c0    00000020                   : BIOS.obj (.text:ti_sysbios_BIOS_linkedWithIncorrectBootLibrary__E)
                  c00530e0    00000020     app_pe674.oe674 (.text:ti_sysbios_BIOS_nullFunc__I)
                  c0053100    00000020     sysbios.ae674 : BIOS.obj (.text:ti_sysbios_BIOS_setThreadType__E)
                  c0053120    00000020                   : BIOS.obj (.text:ti_sysbios_BIOS_start__E)
                  c0053140    00000020     app_pe674.oe674 (.text:ti_sysbios_family_c62_TaskSupport_Module__startupDone__S)
                  c0053160    00000020     sysbios.ae674 : BIOS.obj (.text:ti_sysbios_family_c62_TaskSupport_checkStack__E)
                  c0053180    00000020                   : BIOS.obj (.text:ti_sysbios_family_c62_TaskSupport_getStackAlignment__E)
                  c00531a0    00000020                   : BIOS.obj (.text:ti_sysbios_family_c64p_Cache_wbInv__E)
                  c00531c0    00000020     app_pe674.oe674 (.text:ti_sysbios_family_c64p_Hwi_Module__startupDone__F)
                  c00531e0    00000020     app_pe674.oe674 (.text:ti_sysbios_family_c64p_Hwi_Params__init__S)
                  c0053200    00000020     sysbios.ae674 : BIOS.obj (.text:ti_sysbios_family_c64p_Hwi_clearInterrupt__E)
                  c0053220    00000020     app_pe674.oe674 (.text:ti_sysbios_family_c64p_Hwi_destruct)
                  c0053240    00000020     sysbios.ae674 : BIOS.obj (.text:ti_sysbios_family_c64p_Hwi_getFunc__E)
                  c0053260    00000020                   : BIOS.obj (.text:ti_sysbios_family_c64p_Hwi_getHandle__E)
                  c0053280    00000020                   : BIOS.obj (.text:ti_sysbios_family_c64p_Hwi_startup__E)
                  c00532a0    00000020                   : BIOS.obj (.text:ti_sysbios_family_c64p_Hwi_switchFromBootStack__E)
                  c00532c0    00000020                   : BIOS.obj (.text:ti_sysbios_family_c64p_Hwi_unPluggedInterrupt__I)
                  c00532e0    00000020                   : BIOS.obj (.text:ti_sysbios_family_c64p_TimestampProvider_Module_startup__E)
                  c0053300    00000020                   : BIOS.obj (.text:ti_sysbios_family_c64p_TimestampProvider_get64__E)
                  c0053320    00000020                   : BIOS.obj (.text:ti_sysbios_gates_GateHwi_Instance_init__E)
                  c0053340    00000020                   : BIOS.obj (.text:ti_sysbios_gates_GateHwi_enter__E)
                  c0053360    00000020                   : BIOS.obj (.text:ti_sysbios_gates_GateHwi_leave__E)
                  c0053380    00000020                   : BIOS.obj (.text:ti_sysbios_gates_GateHwi_query__E)
                  c00533a0    00000020                   : BIOS.obj (.text:ti_sysbios_gates_GateMutex_Instance_finalize__E)
                  c00533c0    00000020                   : BIOS.obj (.text:ti_sysbios_gates_GateMutex_query__E)
                  c00533e0    00000020     app_pe674.oe674 (.text:ti_sysbios_hal_Hwi_HwiProxy_Object__create__S)
                  c0053400    00000020     app_pe674.oe674 (.text:ti_sysbios_hal_Hwi_HwiProxy_delete)
                  c0053420    00000020     app_pe674.oe674 (.text:ti_sysbios_hal_Hwi_HwiProxy_disable__E)
                  c0053440    00000020     app_pe674.oe674 (.text:ti_sysbios_hal_Hwi_HwiProxy_restore__E)
                  c0053460    00000020     sysbios.ae674 : BIOS.obj (.text:ti_sysbios_hal_Hwi_Instance_finalize__E)
                  c0053480    00000020                   : BIOS.obj (.text:ti_sysbios_hal_Hwi_Module_startup__E)
                  c00534a0    00000020     app_pe674.oe674 (.text:ti_sysbios_hal_Hwi_Params__init__S)
                  c00534c0    00000020     app_pe674.oe674 (.text:ti_sysbios_heaps_HeapBuf_Object__get__S)
                  c00534e0    00000020     app_pe674.oe674 (.text:ti_sysbios_heaps_HeapMem_Module_GateProxy_enter__E)
                  c0053500    00000020     app_pe674.oe674 (.text:ti_sysbios_heaps_HeapMem_Module_GateProxy_leave__E)
                  c0053520    00000020     sysbios.ae674 : BIOS.obj (.text:ti_sysbios_heaps_HeapMem_isBlocking__E)
                  c0053540    00000020     app_pe674.oe674 (.text:ti_sysbios_knl_Clock_Params__init__S)
                  c0053560    00000020     app_pe674.oe674 (.text:ti_sysbios_knl_Clock_TimerProxy_getMaxTicks__E)
                  c0053580    00000020     sysbios.ae674 : BIOS.obj (.text:ti_sysbios_knl_Clock_getTicks__E)
                  c00535a0    00000020                   : BIOS.obj (.text:ti_sysbios_knl_Idle_loop__E)
                  c00535c0    00000020                   : BIOS.obj (.text:ti_sysbios_knl_Queue_Instance_init__E)
                  c00535e0    00000020     app_pe674.oe674 (.text:ti_sysbios_knl_Queue_Object__destruct__S)
                  c0053600    00000020     app_pe674.oe674 (.text:ti_sysbios_knl_Queue_Object__get__S)
                  c0053620    00000020     app_pe674.oe674 (.text:ti_sysbios_knl_Queue_destruct)
                  c0053640    00000020     sysbios.ae674 : BIOS.obj (.text:ti_sysbios_knl_Queue_empty__E)
                  c0053660    00000020                   : BIOS.obj (.text:ti_sysbios_knl_Semaphore_Instance_finalize__E)
                  c0053680    00000020     app_pe674.oe674 (.text:ti_sysbios_knl_Semaphore_Params__init__S)
                  c00536a0    00000020     app_pe674.oe674 (.text:ti_sysbios_knl_Semaphore_destruct)
                  c00536c0    00000020     sysbios.ae674 : BIOS.obj (.text:ti_sysbios_knl_Semaphore_reset__E)
                  c00536e0    00000020                   : BIOS.obj (.text:ti_sysbios_knl_Swi_disable__E)
                  c0053700    00000020     app_pe674.oe674 (.text:ti_sysbios_knl_Task_Params__init__S)
                  c0053720    00000020     sysbios.ae674 : BIOS.obj (.text:ti_sysbios_knl_Task_disable__E)
                  c0053740    00000020                   : BIOS.obj (.text:ti_sysbios_knl_Task_getHookContext__E)
                  c0053760    00000020                   : BIOS.obj (.text:ti_sysbios_knl_Task_self__E)
                  c0053780    00000020                   : BIOS.obj (.text:ti_sysbios_knl_Task_setHookContext__E)
                  c00537a0    00000020                   : BIOS.obj (.text:ti_sysbios_knl_Task_startup__E)
                  c00537c0    00000020     app_pe674.oe674 (.text:ti_sysbios_timers_timer64_Timer_Module__startupDone__F)
                  c00537e0    00000020     sysbios.ae674 : BIOS.obj (.text:ti_sysbios_timers_timer64_Timer_getMaxTicks__E)
                  c0053800    00000020     miniPrintf.lib : miniPrintf.oe674 (.text:vsprintf)
                  c0053820    00000020     ti.targets.rts6000.ae674 : Error.oe674 (.text:xdc_runtime_Error_getMsg__E)
                  c0053840    00000020                              : Error.oe674 (.text:xdc_runtime_Error_getSite__E)
                  c0053860    00000020                              : Error.oe674 (.text:xdc_runtime_Error_raiseX__E)
                  c0053880    00000020                              : Gate.oe674 (.text:xdc_runtime_Gate_enterSystem__E)
                  c00538a0    00000020                              : Gate.oe674 (.text:xdc_runtime_Gate_leaveSystem__E)
                  c00538c0    00000020     app_pe674.oe674 (.text:xdc_runtime_IHeap_alloc)
                  c00538e0    00000020     app_pe674.oe674 (.text:xdc_runtime_IHeap_free)
                  c0053900    00000020     app_pe674.oe674 (.text:xdc_runtime_LoggerBuf_Module_GateProxy_enter__E)
                  c0053920    00000020     app_pe674.oe674 (.text:xdc_runtime_LoggerBuf_Module_GateProxy_leave__E)
                  c0053940    00000020     ti.targets.rts6000.ae674 : LoggerBuf.oe674 (.text:xdc_runtime_LoggerBuf_disable__E)
                  c0053960    00000020                              : LoggerBuf.oe674 (.text:xdc_runtime_LoggerBuf_enable__E)
                  c0053980    00000020                              : LoggerBuf.oe674 (.text:xdc_runtime_LoggerBuf_write1__E)
                  c00539a0    00000020                              : LoggerBuf.oe674 (.text:xdc_runtime_LoggerBuf_write2__E)
                  c00539c0    00000020                              : Memory.oe674 (.text:xdc_runtime_Memory_calloc__E)
                  c00539e0    00000020                              : Memory.oe674 (.text:xdc_runtime_Memory_getMaxDefaultTypeAlign__E)
                  c0053a00    00000020     app_pe674.oe674 (.text:xdc_runtime_Startup_exec__I)
                  c0053a20    00000020     app_pe674.oe674 (.text:xdc_runtime_Startup_reset__I)
                  c0053a40    00000020     ti.targets.rts6000.ae674 : Startup.oe674 (.text:xdc_runtime_Startup_rtsDone__E)
                  c0053a60    00000020                              : SysStd.oe674 (.text:xdc_runtime_SysStd_exit__E)
                  c0053a80    00000020                              : SysStd.oe674 (.text:xdc_runtime_SysStd_putch__E)
                  c0053aa0    00000020                              : SysStd.oe674 (.text:xdc_runtime_SysStd_ready__E)
                  c0053ac0    00000020     app_pe674.oe674 (.text:xdc_runtime_System_Module_GateProxy_enter__E)
                  c0053ae0    00000020     app_pe674.oe674 (.text:xdc_runtime_System_Module_GateProxy_leave__E)
                  c0053b00    00000020     ti.targets.rts6000.ae674 : System.oe674 (.text:xdc_runtime_System_Module_startup__E)
                  c0053b20    00000020                              : System.oe674 (.text:xdc_runtime_System_aprintf_va__F)
                  c0053b40    00000020                              : System.oe674 (.text:xdc_runtime_System_printf_va__F)
                  c0053b60    00000020                              : System.oe674 (.text:xdc_runtime_System_vsnprintf__E)
                  c0053b80    00000020     app_pe674.oe674 (.text:xdc_runtime_Text_visitRope__I)

.const     0    c00c1dd0    00003f00     
                  c00c1dd0    0000186f     app_pe674.oe674 (.const:xdc_runtime_Text_charTab__A)
                  c00c363f    00000001     app_pe674.oe674 (.const:ti_sysbios_timers_timer64_Timer_localTimerBaseId__C)
                  c00c3640    00000518     sysbios.ae674 : BIOS.obj (.const:.string)
                  c00c3b58    000001a0     main.obj (.const:.string)
                  c00c3cf8    0000014f     os.lib : mem_bios6.oe674 (.const:.string)
                  c00c3e47    00000129     nettool.lib : httpsend.oe674 (.const:.string)
                  c00c3f70    00000121     stack.lib : nimuppp.oe674 (.const:.string)
                  c00c4091    0000010e               : route6.oe674 (.const:.string)
                  c00c419f    00000109     os.lib : task_bios6.oe674 (.const:.string)
                  c00c42a8    00000101     rts6740_elf.lib : ctype.obj (.const:.string:_ctypes_)
                  c00c43a9    000000fa     stack.lib : bind6.oe674 (.const:.string)
                  c00c44a3    00000004     nettool.lib : telnetd.oe674 (.const:.string)
                  c00c44a7    00000001     --HOLE-- [fill = 0]
                  c00c44a8    000000e8     app_pe674.oe674 (.const:xdc_runtime_Text_nodeTab__A)
                  c00c4590    000000d9     stack.lib : vlan.oe674 (.const:.string)
                  c00c4669    000000d7     nettool.lib : httpstr.oe674 (.const:.string)
                  c00c4740    000000cf     stack.lib : rtc.oe674 (.const:.string)
                  c00c480f    000000bf               : lliout.oe674 (.const:.string)
                  c00c48ce    000000b8               : node.oe674 (.const:.string)
                  c00c4986    000000b7               : icmpv6_ndisc.oe674 (.const:.string)
                  c00c4a3d    000000b1               : icmpv6out.oe674 (.const:.string)
                  c00c4aee    000000a2               : nimupppoe.oe674 (.const:.string)
                  c00c4b90    00000099               : lli6.oe674 (.const:.string)
                  c00c4c29    00000094               : nimu.oe674 (.const:.string)
                  c00c4cbd    00000001     --HOLE-- [fill = 0]
                  c00c4cbe    00000002     app_pe674.oe674 (.const:ti_sysbios_family_c64p_Cache_Module__id__C)
                  c00c4cc0    0000007c     app_pe674.oe674 (.const:.string)
                  c00c4d3c    00000060     stack.lib : sb.oe674 (.const:.string)
                  c00c4d9c    0000005a               : mld.oe674 (.const:.string)
                  c00c4df6    00000058               : tcp6time.oe674 (.const:.string)
                  c00c4e4e    00000058               : tcptime.oe674 (.const:.string)
                  c00c4ea6    00000002     app_pe674.oe674 (.const:ti_sysbios_family_c64p_EventCombiner_Module__id__C)
                  c00c4ea8    00000058     ti.targets.rts6000.ae674 : Error.oe674 (.const:.string)
                  c00c4f00    00000057     stack.lib : udp6.oe674 (.const:.string)
                  c00c4f57    00000001     --HOLE-- [fill = 0]
                  c00c4f58    00000054               : sockprot.oe674 (.const:Code2Err)
                  c00c4fac    00000050               : bind.oe674 (.const:.string)
                  c00c4ffc    00000050     ti.drv.uart.ae674 : UART_drv.oe674 (.const)
                  c00c504c    0000004e     stack.lib : rtable.oe674 (.const:.string)
                  c00c509a    00000041     nettool.lib : httpclie.oe674 (.const:.string)
                  c00c50db    00000041     stack.lib : sb6.oe674 (.const:.string)
                  c00c511c    00000040     ti.targets.rts6000.ae674 : Text.oe674 (.const:.string)
                  c00c515c    0000003e     stack.lib : ipv6.oe674 (.const:.string)
                  c00c519a    00000002     app_pe674.oe674 (.const:ti_sysbios_family_c64p_Exception_Module__id__C)
                  c00c519c    0000003c     app_pe674.oe674 (.const:ti_sysbios_knl_Task_Object__PARAMS__C)
                  c00c51d8    0000003c     app_pe674.oe674 (.const:xdc_runtime_LoggerBuf_Module__FXNS__C)
                  c00c5214    0000003b     stack.lib : sock6pcb.oe674 (.const:.string)
                  c00c524f    00000037     netctrl.lib : netctrl.oe674 (.const:.string)
                  c00c5286    00000034     os.lib : intmgmt_bios6.oe674 (.const:.string)
                  c00c52ba    00000006     stack.lib : auth.oe674 (.const:.string)
                  c00c52c0    00000034     app_pe674.oe674 (.const:xdc_runtime_Startup_sfxnTab__A)
                  c00c52f4    00000031     nettool.lib : dhcpmain.oe674 (.const:.string)
                  c00c5325    00000031     os.lib : pbm.oe674 (.const:.string)
                  c00c5356    00000002     app_pe674.oe674 (.const:ti_sysbios_family_c64p_Exception_useInternalBuffer__C)
                  c00c5358    00000030     ti.drv.uart.ae674 : UART_soc.oe674 (.const:UART_config)
                  c00c5388    00000030                       : UART_v0.oe674 (.const)
                  c00c53b8    00000030     app_pe674.oe674 (.const:ti_sysbios_family_c64p_Hwi_Object__PARAMS__C)
                  c00c53e8    0000002f     stack.lib : sock.oe674 (.const:.string)
                  c00c5417    00000001     --HOLE-- [fill = 0]
                  c00c5418    0000002c     ti.targets.rts6000.ae674 : Startup.oe674 (.const:.string)
                  c00c5444    0000002c     app_pe674.oe674 (.const:ti_sysbios_hal_Hwi_Object__PARAMS__C)
                  c00c5470    00000028     os.lib : semaphore_bios6.oe674 (.const:.string)
                  c00c5498    00000028     stack.lib : icmpv6in.oe674 (.const:.string)
                  c00c54c0    00000028     app_pe674.oe674 (.const:ti_sysbios_heaps_HeapMem_Module__FXNS__C)
                  c00c54e8    00000028     app_pe674.oe674 (.const:xdc_runtime_LoggerBuf_Object__PARAMS__C)
                  c00c5510    00000027     stack.lib : ipv6_exthdrs.oe674 (.const:.string)
                  c00c5537    00000001     --HOLE-- [fill = 0]
                  c00c5538    00000024     ti.drv.uart.ae674 : UART_stdio.oe674 (.const:.string)
                  c00c555c    00000024     app_pe674.oe674 (.const:ti_sysbios_gates_GateHwi_Module__FXNS__C)
                  c00c5580    00000024     app_pe674.oe674 (.const:ti_sysbios_gates_GateMutex_Module__FXNS__C)
                  c00c55a4    00000024     app_pe674.oe674 (.const:ti_sysbios_heaps_HeapMem_Object__PARAMS__C)
                  c00c55c8    00000024     app_pe674.oe674 (.const:ti_sysbios_knl_Clock_Object__PARAMS__C)
                  c00c55ec    00000024     app_pe674.oe674 (.const:ti_sysbios_knl_Semaphore_Object__PARAMS__C)
                  c00c5610    00000020     ti.osal.ae674 : SemaphoreP_tirtos.oe674 (.const:.string)
                  c00c5630    00000020     app_pe674.oe674 (.const:ti_sysbios_family_c64p_Hwi_Object__DESC__C)
                  c00c5650    00000020     app_pe674.oe674 (.const:ti_sysbios_gates_GateHwi_Object__DESC__C)
                  c00c5670    00000020     app_pe674.oe674 (.const:ti_sysbios_gates_GateMutex_Object__DESC__C)
                  c00c5690    00000020     app_pe674.oe674 (.const:ti_sysbios_hal_Hwi_Object__DESC__C)
                  c00c56b0    00000020     app_pe674.oe674 (.const:ti_sysbios_heaps_HeapMem_Object__DESC__C)
                  c00c56d0    00000020     app_pe674.oe674 (.const:ti_sysbios_knl_Clock_Object__DESC__C)
                  c00c56f0    00000020     app_pe674.oe674 (.const:ti_sysbios_knl_Queue_Object__DESC__C)
                  c00c5710    00000020     app_pe674.oe674 (.const:ti_sysbios_knl_Semaphore_Object__DESC__C)
                  c00c5730    00000020     app_pe674.oe674 (.const:ti_sysbios_knl_Task_Object__DESC__C)
                  c00c5750    00000020     app_pe674.oe674 (.const:xdc_runtime_LoggerBuf_Object__DESC__C)
                  c00c5770    0000001e     ti.transport.ndk.nimu.ae674 : nimu_eth.oe674 (.const:$P$T0$1$0)
                  c00c578e    0000001e     nettool.lib : daemon.oe674 (.const:.string)
                  c00c57ac    0000001d     stack.lib : lli.oe674 (.const:.string)
                  c00c57c9    00000001     --HOLE-- [fill = 0]
                  c00c57ca    00000002     app_pe674.oe674 (.const:ti_sysbios_family_c64p_Hwi_Module__id__C)
                  c00c57cc    0000001c     ti.drv.uart.ae674 : UART_v0.oe674 (.const:.string)
                  c00c57e8    0000001c     ti.osal.ae674 : HwiP_tirtos.oe674 (.const:.string)
                  c00c5804    0000001c     ti.drv.emac.ae674 : emac_drv_v0.oe674 (.const)
                  c00c5820    0000001a     app_pe674.oe674 (.const:xdc_runtime_Startup_sfxnRts__A)
                  c00c583a    00000018     nettool.lib : config.oe674 (.const:.string)
                  c00c5852    00000018     stack.lib : exec.oe674 (.const:.string)
                  c00c586a    00000002     app_pe674.oe674 (.const:ti_sysbios_family_c64p_Hwi_Module__loggerDefined__C)
                  c00c586c    00000004     rts6740_elf.lib : fputs.obj (.const:.string)
                  c00c5870    00000018     ti.drv.emac.ae674 : emac_soc.oe674 (.const:EMAC_config)
                  c00c5888    00000018     app_pe674.oe674 (.const:ti_sysbios_gates_GateHwi_Object__PARAMS__C)
                  c00c58a0    00000018     app_pe674.oe674 (.const:ti_sysbios_gates_GateMutex_Object__PARAMS__C)
                  c00c58b8    00000018     app_pe674.oe674 (.const:ti_sysbios_knl_Queue_Object__PARAMS__C)
                  c00c58d0    00000018     app_pe674.oe674 (.const:ti_sysbios_knl_Task_hooks__A)
                  c00c58e8    00000017     stack.lib : ipout.oe674 (.const:.string)
                  c00c58ff    00000016               : ipv6out.oe674 (.const:.string)
                  c00c5915    00000001     --HOLE-- [fill = 0]
                  c00c5916    00000002     app_pe674.oe674 (.const:ti_sysbios_gates_GateMutex_Module__id__C)
                  c00c5918    00000014     ti.drv.emac.ae674 : emac_drv.oe674 (.const:.string)
                  c00c592c    00000013     stack.lib : fileuser.oe674 (.const:.string)
                  c00c593f    00000001     --HOLE-- [fill = 0]
                  c00c5940    00000011     ti.targets.rts6000.ae674 : System.oe674 (.const:.string:digtohex)
                  c00c5951    00000011     stack.lib : tcp6prot.oe674 (.const:.string)
                  c00c5962    00000011               : tcpprot.oe674 (.const:.string)
                  c00c5973    00000001     --HOLE-- [fill = 0]
                  c00c5974    00000004     ti.targets.rts6000.ae674 : Assert.oe674 (.const:.string)
                  c00c5978    00000010     app_pe674.oe674 (.const:ti_sysbios_family_c64p_EventCombiner_EVTMASK__C)
                  c00c5988    0000000e     os.lib : ossys.oe674 (.const:.string)
                  c00c5996    0000000e     stack.lib : timer.oe674 (.const:.string)
                  c00c59a4    0000000c     os.lib : efs.oe674 (.const:.string)
                  c00c59b0    0000000b     stack.lib : route.oe674 (.const:.string)
                  c00c59bb    00000001     --HOLE-- [fill = 0]
                  c00c59bc    00000008     ti.targets.rts6000.ae674 : System.oe674 (.const:.string)
                  c00c59c4    00000008     app_pe674.oe674 (.const:ti_sysbios_knl_Idle_funcList__C)
                  c00c59cc    00000008     app_pe674.oe674 (.const:ti_sysbios_knl_Task_hooks__C)
                  c00c59d4    00000004     app_pe674.oe674 (.const:ti_sysbios_family_c62_TaskSupport_stackAlignment__C)
                  c00c59d8    00000008     app_pe674.oe674 (.const:xdc_runtime_Startup_firstFxns__A)
                  c00c59e0    00000008     app_pe674.oe674 (.const:xdc_runtime_Startup_firstFxns__C)
                  c00c59e8    00000008     app_pe674.oe674 (.const:xdc_runtime_Startup_lastFxns__C)
                  c00c59f0    00000004     app_pe674.oe674 (.const:ti_sysbios_family_c64p_Cache_EMIFA_BASE__C)
                  c00c59f4    00000004     app_pe674.oe674 (.const:ti_sysbios_family_c64p_Cache_EMIFA_CFG__C)
                  c00c59f8    00000004     app_pe674.oe674 (.const:ti_sysbios_family_c64p_Cache_EMIFA_LENGTH__C)
                  c00c59fc    00000004     app_pe674.oe674 (.const:ti_sysbios_family_c64p_Cache_EMIFB_BASE__C)
                  c00c5a00    00000004     app_pe674.oe674 (.const:ti_sysbios_family_c64p_Cache_EMIFB_CFG__C)
                  c00c5a04    00000004     app_pe674.oe674 (.const:ti_sysbios_family_c64p_Cache_EMIFB_LENGTH__C)
                  c00c5a08    00000004     app_pe674.oe674 (.const:ti_sysbios_family_c64p_Cache_EMIFC_BASE__C)
                  c00c5a0c    00000004     app_pe674.oe674 (.const:ti_sysbios_family_c64p_Cache_EMIFC_CFG__C)
                  c00c5a10    00000004     app_pe674.oe674 (.const:ti_sysbios_family_c64p_Cache_EMIFC_LENGTH__C)
                  c00c5a14    00000004     app_pe674.oe674 (.const:ti_sysbios_family_c64p_Cache_E_invalidL1CacheSize__C)
                  c00c5a18    00000004     app_pe674.oe674 (.const:ti_sysbios_family_c64p_Cache_E_invalidL2CacheSize__C)
                  c00c5a1c    00000004     app_pe674.oe674 (.const:ti_sysbios_family_c64p_Cache_MAR0_31__C)
                  c00c5a20    00000004     app_pe674.oe674 (.const:ti_sysbios_family_c64p_Cache_MAR128_159__C)
                  c00c5a24    00000004     app_pe674.oe674 (.const:ti_sysbios_family_c64p_Cache_MAR160_191__C)
                  c00c5a28    00000004     app_pe674.oe674 (.const:ti_sysbios_family_c64p_Cache_MAR192_223__C)
                  c00c5a2c    00000004     app_pe674.oe674 (.const:ti_sysbios_family_c64p_Cache_MAR224_255__C)
                  c00c5a30    00000004     app_pe674.oe674 (.const:ti_sysbios_family_c64p_Cache_MAR32_63__C)
                  c00c5a34    00000004     app_pe674.oe674 (.const:ti_sysbios_family_c64p_Cache_MAR64_95__C)
                  c00c5a38    00000004     app_pe674.oe674 (.const:ti_sysbios_family_c64p_Cache_MAR96_127__C)
                  c00c5a3c    00000004     app_pe674.oe674 (.const:ti_sysbios_family_c64p_EventCombiner_A_invalidEventId__C)
                  c00c5a40    00000004     app_pe674.oe674 (.const:ti_sysbios_family_c64p_EventCombiner_E_unpluggedEvent__C)
                  c00c5a44    00000004     app_pe674.oe674 (.const:ti_sysbios_family_c64p_EventCombiner_Module__diagsEnabled__C)
                  c00c5a48    00000004     app_pe674.oe674 (.const:ti_sysbios_family_c64p_EventCombiner_Module__diagsIncluded__C)
                  c00c5a4c    00000004     app_pe674.oe674 (.const:ti_sysbios_family_c64p_EventCombiner_Module__diagsMask__C)
                  c00c5a50    00000004     app_pe674.oe674 (.const:ti_sysbios_family_c64p_Exception_E_exceptionMax__C)
                  c00c5a54    00000004     app_pe674.oe674 (.const:ti_sysbios_family_c64p_Exception_exceptionHook__C)
                  c00c5a58    00000004     app_pe674.oe674 (.const:ti_sysbios_family_c64p_Exception_externalHook__C)
                  c00c5a5c    00000004     app_pe674.oe674 (.const:ti_sysbios_family_c64p_Exception_internalHook__C)
                  c00c5a60    00000004     app_pe674.oe674 (.const:ti_sysbios_family_c64p_Exception_nmiHook__C)
                  c00c5a64    00000004     app_pe674.oe674 (.const:ti_sysbios_family_c64p_Hwi_E_alreadyDefined__C)
                  c00c5a68    00000004     app_pe674.oe674 (.const:ti_sysbios_family_c64p_Hwi_E_handleNotFound__C)
                  c00c5a6c    00000004     app_pe674.oe674 (.const:ti_sysbios_family_c64p_Hwi_E_invalidIntNum__C)
                  c00c5a70    00000004     app_pe674.oe674 (.const:ti_sysbios_family_c64p_Hwi_LD_end__C)
                  c00c5a74    00000004     app_pe674.oe674 (.const:ti_sysbios_family_c64p_Hwi_LM_begin__C)
                  c00c5a78    00000004     app_pe674.oe674 (.const:ti_sysbios_family_c64p_Hwi_Module__diagsEnabled__C)
                  c00c5a7c    00000004     app_pe674.oe674 (.const:ti_sysbios_family_c64p_Hwi_Module__diagsIncluded__C)
                  c00c5a80    00000004     app_pe674.oe674 (.const:ti_sysbios_family_c64p_Hwi_Module__diagsMask__C)
                  c00c5a84    00000004     app_pe674.oe674 (.const:ti_sysbios_family_c64p_Hwi_Module__loggerFxn1__C)
                  c00c5a88    00000004     app_pe674.oe674 (.const:ti_sysbios_family_c64p_Hwi_Module__loggerFxn8__C)
                  c00c5a8c    00000004     app_pe674.oe674 (.const:ti_sysbios_family_c64p_Hwi_Module__loggerObj__C)
                  c00c5a90    00000004     app_pe674.oe674 (.const:ti_sysbios_gates_GateMutex_A_badContext__C)
                  c00c5a94    00000004     app_pe674.oe674 (.const:ti_sysbios_gates_GateMutex_Instance_State_sem__O)
                  c00c5a98    00000004     app_pe674.oe674 (.const:ti_sysbios_gates_GateMutex_Module__diagsEnabled__C)
                  c00c5a9c    00000004     app_pe674.oe674 (.const:ti_sysbios_gates_GateMutex_Module__diagsIncluded__C)
                  c00c5aa0    00000004     app_pe674.oe674 (.const:ti_sysbios_gates_GateMutex_Module__diagsMask__C)
                  c00c5aa4    00000004     app_pe674.oe674 (.const:ti_sysbios_hal_Hwi_E_stackOverflow__C)
                  c00c5aa8    00000004     app_pe674.oe674 (.const:ti_sysbios_heaps_HeapBuf_Instance_State_freeList__O)
                  c00c5aac    00000004     app_pe674.oe674 (.const:ti_sysbios_heaps_HeapBuf_Object__count__C)
                  c00c5ab0    00000004     app_pe674.oe674 (.const:ti_sysbios_heaps_HeapBuf_numConstructedHeaps__C)
                  c00c5ab4    00000004     app_pe674.oe674 (.const:ti_sysbios_heaps_HeapMem_A_align__C)
                  c00c5ab8    00000004     app_pe674.oe674 (.const:ti_sysbios_heaps_HeapMem_A_heapSize__C)
                  c00c5abc    00000004     app_pe674.oe674 (.const:ti_sysbios_heaps_HeapMem_A_invalidFree__C)
                  c00c5ac0    00000004     app_pe674.oe674 (.const:ti_sysbios_heaps_HeapMem_A_zeroBlock__C)
                  c00c5ac4    00000004     app_pe674.oe674 (.const:ti_sysbios_heaps_HeapMem_E_memory__C)
                  c00c5ac8    00000004     app_pe674.oe674 (.const:ti_sysbios_heaps_HeapMem_Module__diagsEnabled__C)
                  c00c5acc    00000004     app_pe674.oe674 (.const:ti_sysbios_heaps_HeapMem_Module__diagsIncluded__C)
                  c00c5ad0    00000004     app_pe674.oe674 (.const:ti_sysbios_heaps_HeapMem_Module__diagsMask__C)
                  c00c5ad4    00000004     app_pe674.oe674 (.const:ti_sysbios_heaps_HeapMem_Module__gateObj__C)
                  c00c5ad8    00000004     app_pe674.oe674 (.const:ti_sysbios_heaps_HeapMem_Object__count__C)
                  c00c5adc    00000004     app_pe674.oe674 (.const:ti_sysbios_heaps_HeapMem_reqAlign__C)
                  c00c5ae0    00000004     app_pe674.oe674 (.const:ti_sysbios_knl_Clock_A_badThreadType__C)
                  c00c5ae4    00000004     app_pe674.oe674 (.const:ti_sysbios_knl_Clock_LM_begin__C)
                  c00c5ae8    00000004     app_pe674.oe674 (.const:ti_sysbios_knl_Clock_LM_tick__C)
                  c00c5aec    00000004     app_pe674.oe674 (.const:ti_sysbios_knl_Clock_LW_delayed__C)
                  c00c5af0    00000004     app_pe674.oe674 (.const:ti_sysbios_knl_Clock_Module_State_clockQ__O)
                  c00c5af4    00000004     app_pe674.oe674 (.const:ti_sysbios_knl_Clock_Module__diagsEnabled__C)
                  c00c5af8    00000004     app_pe674.oe674 (.const:ti_sysbios_knl_Clock_Module__diagsIncluded__C)
                  c00c5afc    00000004     app_pe674.oe674 (.const:ti_sysbios_knl_Clock_Module__diagsMask__C)
                  c00c5b00    00000004     app_pe674.oe674 (.const:ti_sysbios_knl_Clock_Module__loggerFxn1__C)
                  c00c5b04    00000004     app_pe674.oe674 (.const:ti_sysbios_knl_Clock_Module__loggerFxn2__C)
                  c00c5b08    00000004     app_pe674.oe674 (.const:ti_sysbios_knl_Clock_Module__loggerObj__C)
                  c00c5b0c    00000004     app_pe674.oe674 (.const:ti_sysbios_knl_Semaphore_A_badContext__C)
                  c00c5b10    00000004     app_pe674.oe674 (.const:ti_sysbios_knl_Idle_funcList__A)
                  c00c5b14    00000004     app_pe674.oe674 (.const:ti_sysbios_knl_Semaphore_A_noEvents__C)
                  c00c5b18    00000004     app_pe674.oe674 (.const:ti_sysbios_knl_Semaphore_A_overflow__C)
                  c00c5b1c    00000004     app_pe674.oe674 (.const:ti_sysbios_knl_Semaphore_A_pendTaskDisabled__C)
                  c00c5b20    00000004     app_pe674.oe674 (.const:ti_sysbios_knl_Semaphore_Instance_State_pendQ__O)
                  c00c5b24    00000004     app_pe674.oe674 (.const:ti_sysbios_knl_Semaphore_LM_pend__C)
                  c00c5b28    00000004     app_pe674.oe674 (.const:ti_sysbios_knl_Semaphore_LM_post__C)
                  c00c5b2c    00000004     app_pe674.oe674 (.const:ti_sysbios_knl_Semaphore_Module__diagsEnabled__C)
                  c00c5b30    00000004     app_pe674.oe674 (.const:ti_sysbios_knl_Semaphore_Module__diagsIncluded__C)
                  c00c5b34    00000004     app_pe674.oe674 (.const:ti_sysbios_knl_Semaphore_Module__diagsMask__C)
                  c00c5b38    00000004     app_pe674.oe674 (.const:ti_sysbios_knl_Semaphore_Module__loggerFxn2__C)
                  c00c5b3c    00000004     app_pe674.oe674 (.const:ti_sysbios_knl_Semaphore_Module__loggerFxn4__C)
                  c00c5b40    00000004     app_pe674.oe674 (.const:ti_sysbios_knl_Semaphore_Module__loggerObj__C)
                  c00c5b44    00000004     app_pe674.oe674 (.const:ti_sysbios_knl_Swi_LD_end__C)
                  c00c5b48    00000004     app_pe674.oe674 (.const:ti_sysbios_knl_Swi_LM_begin__C)
                  c00c5b4c    00000004     app_pe674.oe674 (.const:ti_sysbios_knl_Swi_LM_post__C)
                  c00c5b50    00000004     app_pe674.oe674 (.const:ti_sysbios_knl_Swi_Module__diagsEnabled__C)
                  c00c5b54    00000004     app_pe674.oe674 (.const:ti_sysbios_knl_Swi_Module__diagsIncluded__C)
                  c00c5b58    00000004     app_pe674.oe674 (.const:ti_sysbios_knl_Swi_Module__diagsMask__C)
                  c00c5b5c    00000004     app_pe674.oe674 (.const:ti_sysbios_knl_Swi_Module__loggerFxn1__C)
                  c00c5b60    00000004     app_pe674.oe674 (.const:ti_sysbios_knl_Swi_Module__loggerFxn4__C)
                  c00c5b64    00000004     app_pe674.oe674 (.const:ti_sysbios_knl_Swi_Module__loggerObj__C)
                  c00c5b68    00000004     app_pe674.oe674 (.const:ti_sysbios_knl_Swi_Object__count__C)
                  c00c5b6c    00000004     app_pe674.oe674 (.const:ti_sysbios_knl_Task_A_badPriority__C)
                  c00c5b70    00000004     app_pe674.oe674 (.const:ti_sysbios_knl_Task_A_badTaskState__C)
                  c00c5b74    00000004     app_pe674.oe674 (.const:ti_sysbios_knl_Task_A_badThreadType__C)
                  c00c5b78    00000004     app_pe674.oe674 (.const:ti_sysbios_knl_Task_A_badTimeout__C)
                  c00c5b7c    00000004     app_pe674.oe674 (.const:ti_sysbios_knl_Task_A_noPendElem__C)
                  c00c5b80    00000004     app_pe674.oe674 (.const:ti_sysbios_knl_Task_A_sleepTaskDisabled__C)
                  c00c5b84    00000004     app_pe674.oe674 (.const:ti_sysbios_knl_Task_E_spOutOfBounds__C)
                  c00c5b88    00000004     app_pe674.oe674 (.const:ti_sysbios_knl_Task_E_stackOverflow__C)
                  c00c5b8c    00000004     app_pe674.oe674 (.const:ti_sysbios_knl_Task_LD_block__C)
                  c00c5b90    00000004     app_pe674.oe674 (.const:ti_sysbios_knl_Task_LD_exit__C)
                  c00c5b94    00000004     app_pe674.oe674 (.const:ti_sysbios_knl_Task_LD_ready__C)
                  c00c5b98    00000004     app_pe674.oe674 (.const:ti_sysbios_knl_Task_LM_setPri__C)
                  c00c5b9c    00000004     app_pe674.oe674 (.const:ti_sysbios_knl_Task_LM_sleep__C)
                  c00c5ba0    00000004     app_pe674.oe674 (.const:ti_sysbios_knl_Task_LM_switch__C)
                  c00c5ba4    00000004     app_pe674.oe674 (.const:ti_sysbios_knl_Task_Module_State_inactiveQ__O)
                  c00c5ba8    00000004     app_pe674.oe674 (.const:ti_sysbios_knl_Task_Module__diagsEnabled__C)
                  c00c5bac    00000004     app_pe674.oe674 (.const:ti_sysbios_knl_Task_Module__diagsIncluded__C)
                  c00c5bb0    00000004     app_pe674.oe674 (.const:ti_sysbios_knl_Task_Module__diagsMask__C)
                  c00c5bb4    00000004     app_pe674.oe674 (.const:ti_sysbios_knl_Task_Module__loggerFxn2__C)
                  c00c5bb8    00000004     app_pe674.oe674 (.const:ti_sysbios_knl_Task_Module__loggerFxn4__C)
                  c00c5bbc    00000004     app_pe674.oe674 (.const:ti_sysbios_knl_Task_Module__loggerObj__C)
                  c00c5bc0    00000004     app_pe674.oe674 (.const:ti_sysbios_knl_Task_Object__count__C)
                  c00c5bc4    00000004     app_pe674.oe674 (.const:ti_sysbios_knl_Task_Object__heap__C)
                  c00c5bc8    00000004     app_pe674.oe674 (.const:ti_sysbios_knl_Task_allBlockedFunc__C)
                  c00c5bcc    00000004     app_pe674.oe674 (.const:ti_sysbios_knl_Task_defaultStackHeap__C)
                  c00c5bd0    00000004     app_pe674.oe674 (.const:ti_sysbios_knl_Task_defaultStackSize__C)
                  c00c5bd4    00000004     app_pe674.oe674 (.const:ti_sysbios_knl_Task_numConstructedTasks__C)
                  c00c5bd8    00000004     app_pe674.oe674 (.const:ti_sysbios_timers_timer64_Timer_A_notAvailable__C)
                  c00c5bdc    00000004     app_pe674.oe674 (.const:ti_sysbios_timers_timer64_Timer_E_cannotSupport__C)
                  c00c5be0    00000004     app_pe674.oe674 (.const:ti_sysbios_timers_timer64_Timer_Module__diagsEnabled__C)
                  c00c5be4    00000004     app_pe674.oe674 (.const:ti_sysbios_timers_timer64_Timer_Module__diagsIncluded__C)
                  c00c5be8    00000004     app_pe674.oe674 (.const:ti_sysbios_timers_timer64_Timer_Module__diagsMask__C)
                  c00c5bec    00000004     app_pe674.oe674 (.const:ti_sysbios_timers_timer64_Timer_anyMaskHigh__C)
                  c00c5bf0    00000004     app_pe674.oe674 (.const:ti_sysbios_timers_timer64_Timer_anyMask__C)
                  c00c5bf4    00000004     app_pe674.oe674 (.const:ti_sysbios_timers_timer64_Timer_freqDivisor__C)
                  c00c5bf8    00000004     app_pe674.oe674 (.const:ti_sysbios_timers_timer64_Timer_numLocalTimers__C)
                  c00c5bfc    00000004     app_pe674.oe674 (.const:ti_sysbios_timers_timer64_Timer_numTimerDevices__C)
                  c00c5c00    00000004     app_pe674.oe674 (.const:xdc_runtime_Assert_E_assertFailed__C)
                  c00c5c04    00000004     app_pe674.oe674 (.const:xdc_runtime_Core_A_initializedParams__C)
                  c00c5c08    00000004     app_pe674.oe674 (.const:xdc_runtime_Core_Module__diagsEnabled__C)
                  c00c5c0c    00000004     app_pe674.oe674 (.const:xdc_runtime_Core_Module__diagsIncluded__C)
                  c00c5c10    00000004     app_pe674.oe674 (.const:xdc_runtime_Core_Module__diagsMask__C)
                  c00c5c14    00000004     app_pe674.oe674 (.const:xdc_runtime_Error_E_memory__C)
                  c00c5c18    00000004     app_pe674.oe674 (.const:xdc_runtime_Error_Module__diagsEnabled__C)
                  c00c5c1c    00000004     app_pe674.oe674 (.const:xdc_runtime_Error_Module__diagsIncluded__C)
                  c00c5c20    00000004     app_pe674.oe674 (.const:xdc_runtime_Error_Module__diagsMask__C)
                  c00c5c24    00000004     app_pe674.oe674 (.const:xdc_runtime_Error_Module__loggerFxn8__C)
                  c00c5c28    00000004     app_pe674.oe674 (.const:xdc_runtime_Error_Module__loggerObj__C)
                  c00c5c2c    00000004     app_pe674.oe674 (.const:xdc_runtime_Error_policyFxn__C)
                  c00c5c30    00000004     app_pe674.oe674 (.const:xdc_runtime_Error_policy__C)
                  c00c5c34    00000004     app_pe674.oe674 (.const:xdc_runtime_Error_raiseHook__C)
                  c00c5c38    00000004     app_pe674.oe674 (.const:xdc_runtime_IFilterLogger_Interface__BASE__C)
                  c00c5c3c    00000004     app_pe674.oe674 (.const:xdc_runtime_IGateProvider_Interface__BASE__C)
                  c00c5c40    00000004     app_pe674.oe674 (.const:xdc_runtime_IHeap_Interface__BASE__C)
                  c00c5c44    00000004     app_pe674.oe674 (.const:xdc_runtime_ILogger_Interface__BASE__C)
                  c00c5c48    00000004     app_pe674.oe674 (.const:xdc_runtime_IModule_Interface__BASE__C)
                  c00c5c4c    00000004     app_pe674.oe674 (.const:xdc_runtime_Log_L_error__C)
                  c00c5c50    00000004     app_pe674.oe674 (.const:xdc_runtime_LoggerBuf_E_badLevel__C)
                  c00c5c54    00000004     app_pe674.oe674 (.const:xdc_runtime_LoggerBuf_Module__gateObj__C)
                  c00c5c58    00000004     app_pe674.oe674 (.const:xdc_runtime_LoggerBuf_Object__count__C)
                  c00c5c5c    00000004     app_pe674.oe674 (.const:xdc_runtime_LoggerBuf_statusLogger__C)
                  c00c5c60    00000004     app_pe674.oe674 (.const:xdc_runtime_Memory_defaultHeapInstance__C)
                  c00c5c64    00000004     app_pe674.oe674 (.const:xdc_runtime_Startup_execImpl__C)
                  c00c5c68    00000004     app_pe674.oe674 (.const:xdc_runtime_Startup_maxPasses__C)
                  c00c5c6c    00000004     app_pe674.oe674 (.const:xdc_runtime_Startup_sfxnRts__C)
                  c00c5c70    00000004     app_pe674.oe674 (.const:xdc_runtime_Startup_sfxnTab__C)
                  c00c5c74    00000004     app_pe674.oe674 (.const:xdc_runtime_System_Module__gateObj__C)
                  c00c5c78    00000004     app_pe674.oe674 (.const:xdc_runtime_System_abortFxn__C)
                  c00c5c7c    00000004     app_pe674.oe674 (.const:xdc_runtime_System_exitFxn__C)
                  c00c5c80    00000004     app_pe674.oe674 (.const:xdc_runtime_System_extendFxn__C)
                  c00c5c84    00000004     app_pe674.oe674 (.const:xdc_runtime_System_maxAtexitHandlers__C)
                  c00c5c88    00000004     app_pe674.oe674 (.const:xdc_runtime_Text_charTab__C)
                  c00c5c8c    00000004     app_pe674.oe674 (.const:xdc_runtime_Text_nameEmpty__C)
                  c00c5c90    00000004     app_pe674.oe674 (.const:xdc_runtime_Text_nameStatic__C)
                  c00c5c94    00000004     app_pe674.oe674 (.const:xdc_runtime_Text_nameUnknown__C)
                  c00c5c98    00000004     app_pe674.oe674 (.const:xdc_runtime_Text_nodeTab__C)
                  c00c5c9c    00000004     app_pe674.oe674 (.const:xdc_runtime_Text_visitRopeFxn__C)
                  c00c5ca0    00000002     app_pe674.oe674 (.const:ti_sysbios_hal_Hwi_Module__id__C)
                  c00c5ca2    00000002     app_pe674.oe674 (.const:ti_sysbios_heaps_HeapMem_Module__id__C)
                  c00c5ca4    00000002     app_pe674.oe674 (.const:ti_sysbios_knl_Clock_Module__id__C)
                  c00c5ca6    00000002     app_pe674.oe674 (.const:ti_sysbios_knl_Clock_Module__loggerDefined__C)
                  c00c5ca8    00000002     app_pe674.oe674 (.const:ti_sysbios_knl_Semaphore_Module__id__C)
                  c00c5caa    00000002     app_pe674.oe674 (.const:ti_sysbios_knl_Semaphore_Module__loggerDefined__C)
                  c00c5cac    00000002     app_pe674.oe674 (.const:ti_sysbios_knl_Swi_Module__id__C)
                  c00c5cae    00000002     app_pe674.oe674 (.const:ti_sysbios_knl_Swi_Module__loggerDefined__C)
                  c00c5cb0    00000002     app_pe674.oe674 (.const:ti_sysbios_knl_Task_Module__id__C)
                  c00c5cb2    00000002     app_pe674.oe674 (.const:ti_sysbios_knl_Task_Module__loggerDefined__C)
                  c00c5cb4    00000002     app_pe674.oe674 (.const:ti_sysbios_timers_timer64_Timer_Module__id__C)
                  c00c5cb6    00000002     app_pe674.oe674 (.const:ti_sysbios_timers_timer64_Timer_startupNeeded__C)
                  c00c5cb8    00000002     app_pe674.oe674 (.const:ti_sysbios_timers_timer64_Timer_useTimer64pRegMap__C)
                  c00c5cba    00000002     app_pe674.oe674 (.const:xdc_runtime_Core_Module__id__C)
                  c00c5cbc    00000002     app_pe674.oe674 (.const:xdc_runtime_Error_Module__loggerDefined__C)
                  c00c5cbe    00000002     app_pe674.oe674 (.const:xdc_runtime_Error_maxDepth__C)
                  c00c5cc0    00000002     app_pe674.oe674 (.const:xdc_runtime_LoggerBuf_Module__id__C)
                  c00c5cc2    00000002     app_pe674.oe674 (.const:xdc_runtime_LoggerBuf_filterByLevel__C)
                  c00c5cc4    00000002     app_pe674.oe674 (.const:xdc_runtime_Main_Module__id__C)
                  c00c5cc6    00000002     app_pe674.oe674 (.const:xdc_runtime_Memory_Module__id__C)
                  c00c5cc8    00000002     app_pe674.oe674 (.const:xdc_runtime_Text_charCnt__C)
                  c00c5cca    00000002     app_pe674.oe674 (.const:xdc_runtime_Text_isLoaded__C)
                  c00c5ccc    00000002     app_pe674.oe674 (.const:xdc_runtime_Text_registryModsLastId__C)
                  c00c5cce    00000002     app_pe674.oe674 (.const:xdc_runtime_Text_unnamedModsLastId__C)

.fardata   0    c00c98d0    00001204     UNINITIALIZED
                  c00c98d0    00000400     app_pe674.oe674 (.fardata:ti_sysbios_family_c64p_EventCombiner_Module__state__V)
                  c00c9cd0    000001e0     rts6740_elf.lib : defs.obj (.fardata:_ftable)
                  c00c9eb0    000000f0     app_pe674.oe674 (.fardata:ti_sysbios_knl_Task_Object__table__V)
                  c00c9fa0    000000f0     ti.drv.uart.ae674 : UART_soc.oe674 (.fardata:uartInitCfg)
                  c00ca090    000000b4     stack.lib : exec.oe674 (.fardata)
                  c00ca144    00000004     rts6740_elf.lib : _lock.obj (.fardata:_lock)
                  c00ca148    000000a0                     : write.obj (.fardata:_stream)
                  c00ca1e8    00000080     app_pe674.oe674 (.fardata:ti_sysbios_knl_Swi_Module_State_0_readyQ__A)
                  c00ca268    00000080     app_pe674.oe674 (.fardata:ti_sysbios_knl_Task_Module_State_0_readyQ__A)
                  c00ca2e8    00000078     rts6740_elf.lib : write.obj (.fardata:_device)
                  c00ca360    0000006c     app_pe674.oe674 (.fardata:ti_sysbios_family_c64p_Hwi_Module__state__V)
                  c00ca3cc    00000004     rts6740_elf.lib : _lock.obj (.fardata:_unlock)
                  c00ca3d0    00000060     app_pe674.oe674 (.fardata:ti_sysbios_timers_timer64_Timer_Module_State_0_device__A)
                  c00ca430    00000050     stack.lib : exec.oe674 (.fardata:tasks)
                  c00ca480    00000050     app_pe674.oe674 (.fardata:ti_sysbios_timers_timer64_Timer_Object__table__V)
                  c00ca4d0    0000004d     nettool.lib : dhcptags.oe674 (.fardata:DHCPTypeCode)
                  c00ca51d    00000001     --HOLE--
                  c00ca51e    00000002     app_pe674.oe674 (.fardata:xdc_runtime_Error_Module__state__V)
                  c00ca520    00000044     app_pe674.oe674 (.fardata:ti_sysbios_knl_Task_Module__state__V)
                  c00ca564    00000004     rts6740_elf.lib : defs.obj (.fardata)
                  c00ca568    00000040     netctrl.lib : netsrv.oe674 (.fardata:CloseOrder)
                  c00ca5a8    00000040                 : netsrv.oe674 (.fardata:OpenOrder)
                  c00ca5e8    00000040     stack.lib : md5.oe674 (.fardata:PADDING)
                  c00ca628    00000040     nettool.lib : httpsend.oe674 (.fardata:codestr)
                  c00ca668    00000040     os.lib : intmgmt_bios6.oe674 (.fardata:hwiTable)
                  c00ca6a8    00000040     app_pe674.oe674 (.fardata:ti_sysbios_gates_GateMutex_Object__table__V)
                  c00ca6e8    00000034     stack.lib : tcp6time.oe674 (.fardata:tcp_backoff)
                  c00ca71c    00000004     app_pe674.oe674 (.fardata:ti_sysbios_family_c64p_Cache_Module__state__V)
                  c00ca720    00000034     stack.lib : tcptime.oe674 (.fardata:tcp_backoff)
                  c00ca754    00000030     app_pe674.oe674 (.fardata:ti_sysbios_family_c64p_Exception_Module__state__V)
                  c00ca784    00000004     app_pe674.oe674 (.fardata:ti_sysbios_family_c64p_primus_TimerSupport_Module__state__V)
                  c00ca788    00000030     app_pe674.oe674 (.fardata:ti_sysbios_knl_Swi_Object__table__V)
                  c00ca7b8    0000002c     app_pe674.oe674 (.fardata:ti_sysbios_knl_Clock_Module__state__V)
                  c00ca7e4    00000024     os.lib : ossys.oe674 (.fardata)
                  c00ca808    00000024     app_pe674.oe674 (.fardata:ti_sysbios_BIOS_Module__state__V)
                  c00ca82c    00000004     app_pe674.oe674 (.fardata:ti_sysbios_heaps_HeapBuf_Module__state__V)
                  c00ca830    00000024     app_pe674.oe674 (.fardata:xdc_runtime_LoggerBuf_Object__table__V)
                  c00ca854    00000004     app_pe674.oe674 (.fardata:xdc_runtime_Memory_Module__state__V)
                  c00ca858    00000020     stack.lib : rtc.oe674 (.fardata:pstrMsgName)
                  c00ca878    00000020     app_pe674.oe674 (.fardata:ti_sysbios_timers_timer64_Timer_Module_State_0_gctrl__A)
                  c00ca898    00000020     app_pe674.oe674 (.fardata:ti_sysbios_timers_timer64_Timer_Module_State_0_handles__A)
                  c00ca8b8    00000020     app_pe674.oe674 (.fardata:ti_sysbios_timers_timer64_Timer_Module_State_0_intFreqs__A)
                  c00ca8d8    00000020     app_pe674.oe674 (.fardata:xdc_runtime_System_Module_State_0_atexitHandlers__A)
                  c00ca8f8    0000001c     app_pe674.oe674 (.fardata:ti_sysbios_knl_Swi_Module__state__V)
                  c00ca914    00000004     --HOLE--
                  c00ca918    00000018     ti.drv.emac.ae674 : mdio.oe674 (.fardata:PhyStateTimeout)
                  c00ca930    00000018     main.obj (.fardata:TaskName)
                  c00ca948    00000018     ti.osal.ae674 : Utils_tirtos.oe674 (.fardata)
                  c00ca960    00000018     app_pe674.oe674 (.fardata:ti_sysbios_family_c64p_Hwi_Object__table__V)
                  c00ca978    00000018     app_pe674.oe674 (.fardata:ti_sysbios_heaps_HeapMem_Object__table__V)
                  c00ca990    00000018     app_pe674.oe674 (.fardata:ti_sysbios_timers_timer64_Timer_Module__state__V)
                  c00ca9a8    00000014     main.obj (.fardata:ReportStr)
                  c00ca9bc    00000004     --HOLE--
                  c00ca9c0    00000014     main.obj (.fardata:StatusStr)
                  c00ca9d4    00000004     --HOLE--
                  c00ca9d8    00000014     stack.lib : sock6pcb.oe674 (.fardata:pSockList)
                  c00ca9ec    00000004     --HOLE--
                  c00ca9f0    00000014               : sockpcb.oe674 (.fardata:pSockList)
                  c00caa04    0000000c     rts6740_elf.lib : exit.obj (.fardata)
                  c00caa10    0000000b     stack.lib : tcp6out.oe674 (.fardata:tcp_outflags)
                  c00caa1b    00000005     --HOLE--
                  c00caa20    0000000b               : tcpout.oe674 (.fardata:tcp_outflags)
                  c00caa2b    00000005     --HOLE--
                  c00caa30    00000008     ti.transport.ndk.nimu.ae674 : nimu_eth.oe674 (.fardata:NIMUDeviceTable)
                  c00caa38    00000008     app_pe674.oe674 (.fardata:ti_sysbios_family_c64p_Hwi_Module__root__V)
                  c00caa40    00000008     app_pe674.oe674 (.fardata:ti_sysbios_family_c64p_primus_TimerSupport_Module_State_0_suspSrc__A)
                  c00caa48    00000008     app_pe674.oe674 (.fardata:ti_sysbios_gates_GateHwi_Module__root__V)
                  c00caa50    00000008     app_pe674.oe674 (.fardata:ti_sysbios_gates_GateMutex_Module__root__V)
                  c00caa58    00000008     app_pe674.oe674 (.fardata:ti_sysbios_hal_Hwi_Module__root__V)
                  c00caa60    00000008     app_pe674.oe674 (.fardata:ti_sysbios_hal_Hwi_Object__table__V)
                  c00caa68    00000008     app_pe674.oe674 (.fardata:ti_sysbios_heaps_HeapMem_Module__root__V)
                  c00caa70    00000008     app_pe674.oe674 (.fardata:ti_sysbios_knl_Clock_Module__root__V)
                  c00caa78    00000008     app_pe674.oe674 (.fardata:ti_sysbios_knl_Queue_Module__root__V)
                  c00caa80    00000008     app_pe674.oe674 (.fardata:ti_sysbios_knl_Semaphore_Module__root__V)
                  c00caa88    00000008     app_pe674.oe674 (.fardata:ti_sysbios_knl_Task_Module__root__V)
                  c00caa90    00000008     app_pe674.oe674 (.fardata:xdc_runtime_LoggerBuf_Module__root__V)
                  c00caa98    00000008     app_pe674.oe674 (.fardata:xdc_runtime_Registry_Module__state__V)
                  c00caaa0    00000008     app_pe674.oe674 (.fardata:xdc_runtime_Startup_Module__state__V)
                  c00caaa8    00000008     app_pe674.oe674 (.fardata:xdc_runtime_System_Module__state__V)
                  c00caab0    00000006     stack.lib : nimupppoe.oe674 (.fardata:MacBCast)
                  c00caab6    00000002     --HOLE--
                  c00caab8    00000006               : lliout.oe674 (.fardata:bEtherBCast)
                  c00caabe    00000006     app_pe674.oe674 (.fardata:xdc_runtime_LoggerBuf_Module__state__V)
                  c00caac4    00000004     --HOLE--
                  c00caac8    00000004     app_pe674.oe674 (.fardata:ti_sysbios_gates_GateHwi_Object__table__V)
                  c00caacc    00000004     --HOLE--
                  c00caad0    00000004     app_pe674.oe674 (.fardata:ti_sysbios_knl_Task_Module_State_0_idleTask__A)

.switch    0    c00ccad8    000003b8     
                  c00ccad8    00000060     nettool.lib : telnetd.oe674 (.switch:telnet_netdata)
                  c00ccb38    00000058     miniPrintf.lib : miniPrintf.oe674 (.switch:_parsearg)
                  c00ccb90    0000003c     stack.lib : sock.oe674 (.switch:SockSet)
                  c00ccbcc    00000038               : icmpin.oe674 (.switch:ICMPInput)
                  c00ccc04    00000038               : icmpv6in.oe674 (.switch:ICMPv6RxPacket)
                  c00ccc3c    00000034               : rawethsock.oe674 (.switch:RawEthSockSet)
                  c00ccc70    0000002c               : sock6.oe674 (.switch:Sock6Set)
                  c00ccc9c    00000028     miniPrintf.lib : miniPrintf.oe674 (.switch:_int2str)
                  c00cccc4    00000028     stack.lib : lcp.oe674 (.switch:lcpInput)
                  c00cccec    00000024     ti.drv.uart.ae674 : UART_stdio.oe674 (.switch:UART_printf)
                  c00ccd10    00000020     stack.lib : tcp6prot.oe674 (.switch:TCP6PrSetOption)
                  c00ccd30    00000020               : tcpprot.oe674 (.switch:TcpPrSetOption)
                  c00ccd50    00000020               : ipcp.oe674 (.switch:ipcpInput)
                  c00ccd70    0000001c               : sock6int.oe674 (.switch:Sock6Notify)
                  c00ccd8c    0000001c               : sockint.oe674 (.switch:SockNotify)
                  c00ccda8    0000001c     nettool.lib : dhcpsm.oe674 (.switch:dhcpState)
                  c00ccdc4    00000018     stack.lib : nimuppp.oe674 (.switch:pppEvent)
                  c00ccddc    00000014               : icmpv6in.oe674 (.switch:ICMPv6RecvDstUnreachable)
                  c00ccdf0    00000014               : lli6.oe674 (.switch:LLI6TimerCheck)
                  c00cce04    00000014     ti.drv.emac.ae674 : mdio.oe674 (.switch:MDIO_timerTick)
                  c00cce18    00000014     stack.lib : nimu.oe674 (.switch:NIMUIoctl)
                  c00cce2c    00000014               : lcp.oe674 (.switch:lcpSendCfg)
                  c00cce40    00000010               : ipv6_exthdrs.oe674 (.switch:IPv6ParseHopOptions)
                  c00cce50    00000010               : auth.oe674 (.switch:chapInput)
                  c00cce60    00000010     nettool.lib : inetaddr.oe674 (.switch:inet_aton)
                  c00cce70    00000010     stack.lib : ipcp.oe674 (.switch:ipcpSendCfg)
                  c00cce80    00000010               : nimupppoe.oe674 (.switch:pppoeCtrlMsg)

.cio       0    c00cd298    00000120     UNINITIALIZED
                  c00cd298    00000120     rts6740_elf.lib : trgmsg.obj (.cio)

MODULE SUMMARY

       Module                        code     ro data   rw data
       ------                        ----     -------   -------
    .\
       main.obj                      1184     416       96     
       nimu_osal_omapl13x.obj        448      0         0      
       udpHello.obj                  192      0         0      
    +--+-----------------------------+--------+---------+---------+
       Total:                        1824     416       96     
                                                               
    D:\Users\zhuji\Projects\CCD\SY18-201708\DSP\ndkTest\Debug\configPkg\package\cfg\
       app_pe674.oe674               6432     8388      52716  
    +--+-----------------------------+--------+---------+---------+
       Total:                        6432     8388      52716  
                                                               
    D:\Users\zhuji\Projects\CCD\SY18-201708\DSP\ndkTest\src\sysbios\sysbios.ae674
       BIOS.obj                      37888    1304      0      
       c64p_Hwi_disp_always.obj      512      0         0      
       c64p_Exception_asm.obj        384      0         0      
       c62_TaskSupport_asm.obj       224      0         0      
       c64p_Hwi_asm_switch.obj       192      0         0      
       c64p_Hwi_asm.obj              160      0         0      
    +--+-----------------------------+--------+---------+---------+
       Total:                        39360    1304      0      
                                                               
    D:\ti\bios_6_46_05_55\packages\ti\targets\rts6000\lib\boot.ae674
       autoinit.oe674                320      0         0      
       boot.oe674                    160      0         0      
    +--+-----------------------------+--------+---------+---------+
       Total:                        480      0         0      
                                                               
    D:\ti\bios_6_46_05_55\packages\ti\targets\rts6000\lib\ti.targets.rts6000.ae674
       System.oe674                  3232     25        0      
       LoggerBuf.oe674               2368     0         0      
       Text.oe674                    1696     64        0      
       Error.oe674                   1088     88        0      
       Core-mem.oe674                832      0         0      
       Startup.oe674                 768      44        0      
       Memory.oe674                  448      0         0      
       Core-smem.oe674               384      0         0      
       SysStd.oe674                  192      0         0      
       Assert.oe674                  160      4         0      
       Core-label.oe674              128      0         0      
       Core-params.oe674             128      0         0      
       Gate.oe674                    64       0         0      
       Registry.oe674                64       0         0      
    +--+-----------------------------+--------+---------+---------+
       Total:                        11552    225       0      
                                                               
    D:\ti\ccsv7\tools\compiler\ti-cgt-c6000_8.2.1\lib\rts6740_elf.lib
       fputs.obj                     1056     4         0      
       defs.obj                      0        0         804    
       imath64.obj                   704      0         0      
       fputc.obj                     576      0         0      
       setvbuf.obj                   544      0         0      
       fflush.obj                    512      0         0      
       trgmsg.obj                    224      0         288    
       getdevice.obj                 448      0         0      
       hostrename.obj                416      0         0      
       write.obj                     96       0         280    
       fclose.obj                    320      0         0      
       copy_decompress_rle.obj       288      0         0      
       fseek.obj                     288      0         0      
       exit.obj                      256      0         12     
       ctype.obj                     0        257       0      
       _io_perm.obj                  256      0         0      
       atoi.obj                      256      0         0      
       hostopen.obj                  224      0         8      
       close.obj                     224      0         0      
       hostlseek.obj                 224      0         0      
       hostwrite.obj                 224      0         0      
       llshift.obj                   224      0         0      
       memset.obj                    224      0         0      
       divu.obj                      192      0         0      
       hostread.obj                  192      0         0      
       hostunlink.obj                192      0         0      
       remi.obj                      192      0         0      
       tls.obj                       192      0         0      
       fopen.obj                     160      0         0      
       hostclose.obj                 160      0         0      
       memcpy64.obj                  160      0         0      
       remu.obj                      160      0         0      
       strstr.obj                    160      0         0      
       unlink.obj                    128      0         0      
       _lock.obj                     96       0         8      
       lseek.obj                     96       0         0      
       strcpy.obj                    96       0         0      
       args_main.obj                 64       0         0      
       strasg.obj                    64       0         0      
       strlen.obj                    64       0         0      
       copy_decompress_none.obj      32       0         0      
    +--+-----------------------------+--------+---------+---------+
       Total:                        9984     261       1400   
                                                               
    D:\ti\ndk_2_20_06_35\packages\ti\ndk\lib\eC674\hal\hal_ser_stub.lib
       llserstb.oe674                128      0         0      
    +--+-----------------------------+--------+---------+---------+
       Total:                        128      0         0      
                                                               
    D:\ti\ndk_2_20_06_35\packages\ti\ndk\lib\eC674\hal\hal_timer_bios.lib
       lltimer_bios6.oe674           416      0         28     
    +--+-----------------------------+--------+---------+---------+
       Total:                        416      0         28     
                                                               
    D:\ti\ndk_2_20_06_35\packages\ti\ndk\lib\eC674\hal\hal_userled_stub.lib
       llled.oe674                   96       0         0      
    +--+-----------------------------+--------+---------+---------+
       Total:                        96       0         0      
                                                               
    D:\ti\ndk_2_20_06_35\packages\ti\ndk\lib\eC674\miniPrintf.lib
       miniPrintf.oe674              3584     128       2728   
    +--+-----------------------------+--------+---------+---------+
       Total:                        3584     128       2728   
                                                               
    D:\ti\ndk_2_20_06_35\packages\ti\ndk\lib\eC674\netctrl.lib
       netsrv.oe674                  2848     0         348    
       netctrl.oe674                 1760     55        48     
    +--+-----------------------------+--------+---------+---------+
       Total:                        4608     55        396    
                                                               
    D:\ti\ndk_2_20_06_35\packages\ti\ndk\lib\eC674\nettool.lib
       config.oe674                  4704     24        4      
       httpsend.oe674                3712     297       68     
       telnetd.oe674                 3904     100       0      
       daemon.oe674                  2208     30        1656   
       httpclie.oe674                3328     65        0      
       dhcpsm.oe674                  2720     28        0      
       dhcppkt.oe674                 1472     0         0      
       dhcpbild.oe674                1088     0         0      
       dhcptags.oe674                928      0         77     
       dhcpmain.oe674                832      49        0      
       inetaddr.oe674                832      16        0      
       dhcpsock.oe674                768      0         0      
       httppars.oe674                608      0         0      
       ipaddr.oe674                  480      0         4      
       http.oe674                    288      0         0      
       httpstr.oe674                 0        215       68     
    +--+-----------------------------+--------+---------+---------+
       Total:                        27872    824       1877   
                                                               
    D:\ti\ndk_2_20_06_35\packages\ti\ndk\lib\eC674\os.lib
       pbm.oe674                     1440     49        338704 
       mem_bios6.oe674               3552     335       49788  
       ossys.oe674                   512      14        1580   
       task_bios6.oe674              1664     265       28     
       efs.oe674                     1888     12        4      
       intmgmt_bios6.oe674           608      52        64     
       semaphore_bios6.oe674         288      40        0      
       oem_bios6.oe674               32       0         0      
    +--+-----------------------------+--------+---------+---------+
       Total:                        9984     767       390168 
                                                               
    D:\ti\ndk_2_20_06_35\packages\ti\ndk\lib\eC674\stack.lib
       sock.oe674                    9600     107       0      
       sock6.oe674                   8384     44        0      
       tcp6in.oe674                  6560     0         184    
       tcpin.oe674                   6656     0         0      
       nimupppoe.oe674               5280     178       22     
       icmpv6_ndisc.oe674            5120     183       0      
       tcpout.oe674                  5152     0         11     
       tcp6out.oe674                 5120     0         11     
       route6.oe674                  4672     270       12     
       nimuppp.oe674                 4512     313       0      
       bind6.oe674                   4448     250       16     
       nimu.oe674                    4288     168       100    
       ipv6_frag.oe674               4256     0         12     
       lli6.oe674                    3968     173       8      
       igmp.oe674                    3840     0         308    
       fileuser.oe674                4096     19        0      
       lcp.oe674                     4032     60        0      
       sock6pcb.oe674                3808     59        24     
       socket.oe674                  3872     0         0      
       auth.oe674                    3680     22        0      
       sockpcb.oe674                 3552     0         24     
       md5.oe674                     3456     0         64     
       ipin.oe674                    3232     0         8      
       rtable.oe674                  3040     78        24     
       tcp6prot.oe674                2976     49        0      
       tcpprot.oe674                 2976     49        0      
       ipv6.oe674                    2720     98        200    
       ipcp.oe674                    2848     48        0      
       node.oe674                    2656     184       4      
       icmpv6out.oe674               2656     177       0      
       sb.oe674                      2624     96        0      
       ipout.oe674                   2496     23        0      
       icmpv6in.oe674                2144     116       0      
       udp.oe674                     2208     0         48     
       sb6.oe674                     2176     65        0      
       rawethsock.oe674              1984     52        0      
       route.oe674                   2016     11        0      
       icmpin.oe674                  1856     56        0      
       sockint.oe674                 1856     28        0      
       lli.oe674                     1760     29        8      
       ipfrag.oe674                  1792     0         4      
       sock6int.oe674                1760     28        0      
       bind.oe674                    1696     80        4      
       tcptime.oe674                 1568     88        52     
       lliin.oe674                   1664     0         0      
       tcp6time.oe674                1504     88        52     
       udp6.oe674                    1472     87        36     
       ipv6_exthdrs.oe674            1536     55        0      
       lliout.oe674                  1312     191       6      
       tcp.oe674                     1248     0         204    
       file.oe674                    1408     0         0      
       rtc.oe674                     1088     207       60     
       icmp.oe674                    1088     0         164    
       pipe.oe674                    1216     0         0      
       ipv6out.oe674                 1088     22        0      
       tcp6.oe674                    1056     0         8      
       mld.oe674                     960      90        4      
       vlan.oe674                    736      217       40     
       ip.oe674                      864      0         120    
       raw.oe674                     928      0         16     
       raw6.oe674                    928      0         16     
       exec.oe674                    608      24        268    
       timer.oe674                   672      14        8      
       raweth.oe674                  576      0         16     
       rawethsock_pcb.oe674          576      0         4      
       ipv6in.oe674                  544      0         0      
       listlib.oe674                 384      0         0      
       sockprot.oe674                224      84        0      
       sock6prot.oe674               224      0         0      
       rawethsock_prot.oe674         64       0         0      
       nat.oe674                     32       0         0      
       icmpv6.oe674                  0        0         24     
    +--+-----------------------------+--------+---------+---------+
       Total:                        183392   4280      2194   
                                                               
    D:\ti\pdk_omapl138_1_0_1\packages\ti\board\lib\lcdkOMAPL138\c674\release\ti.board.ae674
       lcdkOMAPL138_clock.oe674      1536     0         0      
       lcdkOMAPL138_pll.oe674        1472     0         0      
       lcdkOMAPL138_pinmux.oe674     1440     0         0      
       lcdkOMAPL138_ddr.oe674        416      0         0      
       lcdkOMAPL138.oe674            352      0         0      
       lcdkOMAPL138_lld_init.oe674   32       0         0      
    +--+-----------------------------+--------+---------+---------+
       Total:                        5248     0         0      
                                                               
    D:\ti\pdk_omapl138_1_0_1\packages\ti\csl\lib\omapl138\c674\release\ti.csl.ae674
       uart.oe674                    1216     0         0      
    +--+-----------------------------+--------+---------+---------+
       Total:                        1216     0         0      
                                                               
    D:\ti\pdk_omapl138_1_0_1\packages\ti\drv\emac\lib\omapl138\c674\release\ti.drv.emac.ae674
       emac_drv_v0.oe674             6336     28        23964  
       emac.oe674                    10912    0         0      
       mdio.oe674                    2976     20        24     
       emac_drv.oe674                736      20        0      
       emac_soc.oe674                0        24        0      
    +--+-----------------------------+--------+---------+---------+
       Total:                        20960    92        23988  
                                                               
    D:\ti\pdk_omapl138_1_0_1\packages\ti\drv\uart\lib\omapl138\c674\release\ti.drv.uart.ae674
       UART_v0.oe674                 7104     76        0      
       UART_stdio.oe674              3040     72        8      
       UART_soc.oe674                0        48        648    
       UART_drv.oe674                320      80        4      
    +--+-----------------------------+--------+---------+---------+
       Total:                        10464    276       660    
                                                               
    D:\ti\pdk_omapl138_1_0_1\packages\ti\osal\lib\tirtos\omapl138\c674\release\ti.osal.ae674
       SemaphoreP_tirtos.oe674       544      32        0      
       RegisterIntr_tirtos.oe674     544      0         0      
       EventCombinerP_tirtos.oe674   480      0         0      
       HwiP_tirtos.oe674             448      28        0      
       Utils_tirtos.oe674            384      0         24     
       MuxIntcP_tirtos.oe674         64       0         0      
    +--+-----------------------------+--------+---------+---------+
       Total:                        2464     60        24     
                                                               
    D:\ti\pdk_omapl138_1_0_1\packages\ti\transport\ndk\nimu\lib\omapl138\c674\release\ti.transport.ndk.nimu.ae674
       nimu_eth.oe674                3392     30        64     
    +--+-----------------------------+--------+---------+---------+
       Total:                        3392     30        64     
                                                               
       Stack:                        0        0         4096   
       Linker Generated:             0        3308      0      
    +--+-----------------------------+--------+---------+---------+
       Grand Total:                  343456   20414     480435 


LINKER GENERATED COPY TABLES

__TI_cinit_table @ c00ce298 records: 11, size/record: 8, table size: 88
	.fardata: load addr=c00cd600, load size=00000b5c bytes, run addr=c00c98d0, run size=00001204 bytes, compression=rle
	.neardata: load addr=c00ce15c, load size=00000093 bytes, run addr=c00ccef0, run size=000001b4 bytes, compression=rle
	.far.2: load addr=c00ce1ef, load size=00000029 bytes, run addr=c00a6700, run size=000136cc bytes, compression=rle
	.rodata: load addr=c00ce218, load size=00000029 bytes, run addr=c00cd0a4, run size=00000024 bytes, compression=rle
	.far:NDK_PACKETMEM: load addr=c00ce241, load size=0000000d bytes, run addr=c0053c00, run size=00052b00 bytes, compression=rle
	.far:NDK_OBJMEM: load addr=c00ce24e, load size=0000000b bytes, run addr=c00caad8, run size=00001000 bytes, compression=rle
	.far:taskStackSection: load addr=c00ce259, load size=0000000b bytes, run addr=c00c5cd0, run size=00003c00 bytes, compression=rle
	emacComm: load addr=c00ce264, load size=0000000b bytes, run addr=c00cd100, run size=00000194 bytes, compression=rle
	systemHeap: load addr=c00ce26f, load size=0000000b bytes, run addr=c00b9dd0, run size=00008000 bytes, compression=rle
	.bss: load addr=c00ce27a, load size=00000009 bytes, run addr=c00cce90, run size=00000060 bytes, compression=rle
	.far.1: load addr=c00ce283, load size=00000009 bytes, run addr=c0053ba0, run size=00000060 bytes, compression=rle


LINKER GENERATED HANDLER TABLE

__TI_handler_table @ c00ce28c records: 2, size/record: 4, table size: 8
	index: 0, handler: __TI_decompress_rle24
	index: 1, handler: __TI_decompress_none


GLOBAL SYMBOLS: SORTED ALPHABETICALLY BY Name 

address   name                                                                
-------   ----                                                                
c003ce40  Bind6DADCheck                                                       
c0050b80  Bind6FindByHost                                                     
c004e300  Bind6FindByIF                                                       
c0050bc0  Bind6FindByNet                                                      
c003a500  Bind6Free                                                           
c0036680  Bind6GetGlobalAddress                                               
c00523c0  Bind6GetInterfaceHandle                                             
c00523e0  Bind6GetLifetime                                                    
c00428e0  Bind6GetLinkLocalAddress                                            
c004e360  Bind6IF2IPHost                                                      
c00342c0  Bind6Msg                                                            
c0016280  Bind6New                                                            
c0052400  Bind6SetLifetime                                                    
c004e3c0  BindFindByHost                                                      
c004e420  BindFindByIF                                                        
c004e480  BindFindByNet                                                       
c003d080  BindFree                                                            
c0052420  BindGetFirst                                                        
c0052440  BindGetIF                                                           
c004e4e0  BindGetIFByDBCast                                                   
c0050c00  BindGetIP                                                           
c0052460  BindGetNext                                                         
c004e540  BindIF2IPHost                                                       
c0052480  BindIFNet2IPHost                                                    
c00524a0  BindIPHost2IF                                                       
c0024d80  BindNew                                                             
c00b9b90  BlockCount                                                          
c00b9b70  BlockMax                                                            
c0023c40  Board_CorePLLConfig                                                 
c0034460  Board_DDR3Init                                                      
c0025040  Board_DDRPLLConfig                                                  
c00524c0  Board_PLLInit                                                       
c00400e0  Board_configEmifPinMux                                              
c0037e80  Board_init                                                          
c00278a0  Board_moduleClockEnable                                             
c00402e0  Board_moduleClockInit                                               
c002f860  Board_moduleClockSyncReset                                          
c0029920  Board_pinmuxConfig                                                  
c00524e0  Board_uartStdioInit                                                 
c0052f00  C$$EXIT                                                             
c004f738  C$$IO$$                                                             
c00ccf20  CONTENT_LENGTH                                                      
c00ccf1c  CONTENT_TYPE                                                        
c00ccef0  CONTENT_TYPE_APPLET                                                 
c00ccef4  CONTENT_TYPE_AU                                                     
c00ccef8  CONTENT_TYPE_CSS                                                    
c00ccefc  CONTENT_TYPE_DOC                                                    
c00ccf00  CONTENT_TYPE_GIF                                                    
c00ccf04  CONTENT_TYPE_HTML                                                   
c00ccf08  CONTENT_TYPE_JPG                                                    
c00ccf0c  CONTENT_TYPE_MPEG                                                   
c00ccf10  CONTENT_TYPE_PDF                                                    
c00ccf14  CONTENT_TYPE_WAV                                                    
c00ccf18  CONTENT_TYPE_ZIP                                                    
c00ccf24  CRLF                                                                
c0021480  CfgAddEntry                                                         
c00489e0  CfgEntryDeRef                                                       
c0048a80  CfgEntryGetData                                                     
c004e5a0  CfgEntryInfo                                                        
c00326c0  CfgExecute                                                          
c003d1a0  CfgFree                                                             
c0037fe0  CfgGetEntry                                                         
c00403e0  CfgGetEntryCnt                                                      
c0048b20  CfgGetImmediate                                                     
c0038140  CfgGetNextEntry                                                     
c00404e0  CfgNew                                                              
c0034600  CfgRemoveEntry                                                      
c0052500  CfgSetDefault                                                       
c00405e0  CfgSetExecuteOrder                                                  
c004e600  CfgSetService                                                       
c00c4f58  Code2Err                                                            
c00339a8  Convert_CoreLocal2GlobalAddr                                        
c00ccf28  DEFAULT_NAME                                                        
c00460e0  DHCPClose                                                           
c0027b20  DHCPOpen                                                            
c00ccf70  DNSServer                                                           
c003d2c0  DaemonFree                                                          
c002c640  DaemonNew                                                           
c00382a0  DbgPrintf                                                           
c00cd008  DebugCritError                                                      
c00cb4d8  DebugLog                                                            
c00cd004  DebugLogSize                                                        
c00ccf6c  DomainName                                                          
c00c5804  EMAC_FxnTable_v0                                                    
c000eea0  EMAC_RxServiceCheck                                                 
c0012b00  EMAC_TxServiceCheck                                                 
c0038400  EMAC_close                                                          
c0014580  EMAC_commonInit                                                     
c00c5870  EMAC_config                                                         
c0010840  EMAC_coreDeInit                                                     
c0009d00  EMAC_coreInit                                                       
c004bd80  EMAC_getStatistics                                                  
c001bc20  EMAC_sendPacket                                                     
c002a040  EMAC_setMulticast                                                   
c0036980  EMAC_setReceiveFilter                                               
c00406e0  EventCombinerP_GroupRegisterInt                                     
c00525a0  EventCombinerP_disableEvent                                         
c00525c0  EventCombinerP_dispatchPlug                                         
c00525e0  EventCombinerP_enableEvent                                          
c004bf00  EventCombinerP_getHwi                                               
c0050c80  ExecClose                                                           
c0052600  ExecHRef                                                            
c0052620  ExecLowResource                                                     
c003a640  ExecOpen                                                            
c0050cc0  ExecTimer                                                           
c0048ee0  FdSignalEvent                                                       
c003d620  FdWaitEvent                                                         
c00ccf68  GatewayIP                                                           
c0048f80  HOSTclose                                                           
c0042aa0  HOSTlseek                                                           
c0042b80  HOSTopen                                                            
c0046260  HOSTread                                                            
c0034940  HOSTrename                                                          
c0046320  HOSTunlink                                                          
c0042c60  HOSTwrite                                                           
c00ccf2c  HTTP_VER                                                            
c00ccf5c  HostName                                                            
c003d740  HwiP_create                                                         
c004e720  HwiP_delete                                                         
c0052640  HwiP_disable                                                        
c0052660  HwiP_restore                                                        
c004bf80  ICMPChecksum                                                        
c0028020  ICMPGenPacket                                                       
c0011fc0  ICMPInput                                                           
c003a780  ICMPSendRtAdv                                                       
c002dee0  ICMPv6RecvNA                                                        
c0022740  ICMPv6RecvNS                                                        
c000f520  ICMPv6RecvRA                                                        
c004c080  ICMPv6RecvRS                                                        
c0021ac0  ICMPv6RecvRedirect                                                  
c001e8a0  ICMPv6RxPacket                                                      
c0022a40  ICMPv6SendDstUnreachable                                            
c002a2a0  ICMPv6SendNA                                                        
c002a500  ICMPv6SendNS                                                        
c0020780  ICMPv6SendParameterProblem                                          
c0022d40  ICMPv6SendTimeExceeded                                              
c001ec20  IGMPInput                                                           
c003a8c0  IGMPJoin                                                            
c0042d40  IGMPLeave                                                           
c003d860  IGMPLeaveHostGroup                                                  
c0036b00  IGMPMsg                                                             
c004e780  IGMPTestGroup                                                       
c00cd0c4  INFINITE_LT                                                         
c004e7e0  IPChecksum                                                          
c0032880  IPGetRoute                                                          
c003d980  IPMsg                                                               
c0011440  IPReasm                                                             
c00490c0  IPReasmFree                                                         
c0049160  IPReasmTimeout                                                      
c0052680  IPRtChange                                                          
c0005760  IPRxPacket                                                          
c0007860  IPTxPacket                                                          
c00b9838  IPV6_ALL_NODES_ADDRESS                                              
c00b9848  IPV6_ALL_ROUTER_ADDRESS                                             
c00cd0b0  IPV6_DELAY_FIRST_PROBE_TIME                                         
c00b9828  IPV6_HOST_MASK                                                      
c00b97e8  IPV6_LINKLOCALMASK                                                  
c00b9818  IPV6_LOOPBACK_ADDRESS                                               
c00cd0a4  IPV6_MAX_MULTICAST_SOLICIT                                          
c00cd0c0  IPV6_MAX_RTR_SOLICITATIONS                                          
c00cd0b8  IPV6_MAX_RTR_SOLICITATION_DELAY                                     
c00cd0a8  IPV6_MAX_UNICAST_SOLICIT                                            
c00b97f8  IPV6_MULTICASTMASK                                                  
c00cd0b4  IPV6_REACHABLE_TIME                                                 
c00cd0ac  IPV6_RETRANS_TIME                                                   
c00cd0bc  IPV6_RTR_SOLICITATION_INTERVAL                                      
c00b9808  IPV6_UNSPECIFIED_ADDRESS                                            
c0049200  IPv6CompareAddress                                                  
c003aa00  IPv6DisplayIPAddress                                                
c0034c80  IPv6FragMsg                                                         
c004c180  IPv6GetRoute                                                        
c00408e0  IPv6GetSubnetMaskFromBits                                           
c0013600  IPv6IPAddressToString                                               
c003dce0  IPv6Init                                                            
c0050d00  IPv6IsLinkLocal                                                     
c0050d40  IPv6IsMulticast                                                     
c00464a0  IPv6Layer4ComputeChecksum                                           
c0026640  IPv6ParseExtnHeaders                                                
c002fa60  IPv6ParseFragHdr                                                    
c002e320  IPv6RxPacket                                                        
c001b460  IPv6TxFragPacket                                                    
c001bfe0  IPv6TxPacket                                                        
c00b9d08  Id2Size                                                             
c002a760  Interrupt_add                                                       
c003de00  IsICMPv6ErrorPkt                                                    
c00526a0  LED_TOGGLE                                                          
c004c200  LLI6Free                                                            
c00526c0  LLI6GetNetDevice                                                    
c00526e0  LLI6IncRefCount                                                     
c0052700  LLI6IsDead                                                          
c0052720  LLI6IsRouter                                                        
c0050d80  LLI6IsValid                                                         
c0042f00  LLI6Msg                                                             
c002fc60  LLI6New                                                             
c0052740  LLI6SetIncomplete                                                   
c002a9c0  LLI6TxIPPacket                                                      
c0042fe0  LLI6Update                                                          
c004e840  LLIFree                                                             
c0032c00  LLIGenArpPacket                                                     
c0046560  LLIGetValidTime                                                     
c0046620  LLIMsg                                                              
c003ac80  LLINew                                                              
c0014a60  LLIRxPacket                                                         
c001fa00  LLITxIpPacket                                                       
c00492a0  LLIValidateRoute                                                    
c00ccf60  LocalIPAddr                                                         
c00ccf64  LocalIPMask                                                         
c0052760  LoggerBuf_instanceStartup                                           
c0049340  MD5Final                                                            
c0050dc0  MD5Init                                                             
c003df20  MD5Update                                                           
c0040ae0  MDIO_close                                                          
c0052780  MDIO_getStatus                                                      
c00527a0  MDIO_initPHY                                                        
c00493e0  MDIO_open                                                           
c000cbe0  MDIO_timerTick                                                      
c003e040  MLDJoinGroup                                                        
c00467a0  MLDLeaveGroup                                                       
c0050e00  MLDTestGroup                                                        
c0050e40  MuxIntcP_create                                                     
c0050e80  NC_BootComplete                                                     
c00527c0  NC_IPUpdate                                                         
c0032dc0  NC_NetStart                                                         
c00527e0  NC_NetStop                                                          
c004c300  NC_SystemClose                                                      
c003e160  NC_SystemOpen                                                       
c0050ec0  NDK_hookCreate                                                      
c0052800  NDK_hookInit                                                        
c003e280  NIMUAddEthernetHeader                                               
c004e8a0  NIMUAddHeader                                                       
c004e900  NIMUCreatePacket                                                    
c00caa30  NIMUDeviceTable                                                     
c004e960  NIMUFindByIndex                                                     
c0046860  NIMUFindByName                                                      
c0052820  NIMUGetRsvdSizeInfo                                                 
c004c380  NIMUInit                                                            
c001da20  NIMUIoctl                                                           
c004e9c0  NIMUPacketService                                                   
c004ea20  NIMUPacketServiceCheck                                              
c002ac20  NIMUReceivePacket                                                   
c0036c80  NIMURegister                                                        
c004ea80  NIMUSendPacket                                                      
c0052840  NIMUSetRsvdSizeInfo                                                 
c0049480  NIMUShutdown                                                        
c0049520  NIMUUnregister                                                      
c0046920  NS_BootTask                                                         
c004eae0  NS_PreBoot                                                          
c0052860  NatMsg                                                              
c00268e0  NodeAdd                                                             
c0043360  NodeDeRef                                                           
c003adc0  NodeFind                                                            
c0052880  NodeGetRt                                                           
c00528a0  NodeSetRt                                                           
c0034fc0  NodeTreeFree                                                        
c0043520  NodeTreeNew                                                         
c003af00  NodeWalk                                                            
c00528c0  NotifyLowResource                                                   
c00495c0  NtAddNetwork                                                        
c0046aa0  NtIfIdx2Ip                                                          
c0050f00  NtRemoveNetwork                                                     
c00528e0  OEMCacheClean                                                       
c0053440  OEMSysCritOff                                                       
c0053420  OEMSysCritOn                                                        
c0049660  Osal_DeleteInterrupt                                                
c003b040  Osal_RegisterInterrupt                                              
c0050f40  Osal_RegisterInterrupt_initParams                                   
c00338ac  Osal_beginMemAccess                                                 
c0049700  Osal_delay                                                          
c00338c4  Osal_endMemAccess                                                   
c0033960  Osal_enterMultipleCoreCriticalSection                               
c00338e0  Osal_enterSingleCoreCriticalSection                                 
c0033970  Osal_exitMultipleCoreCriticalSection                                
c0033920  Osal_exitSingleCoreCriticalSection                                  
c0033990  Osal_free                                                           
c0050f80  Osal_getHwAttrs                                                     
c004eb40  Osal_getThreadType                                                  
c0033984  Osal_malloc                                                         
c0033870  Osal_platformFree                                                   
c0033840  Osal_platformMalloc                                                 
c0033898  Osal_platformSpiCsEnter                                             
c00338a4  Osal_platformSpiCsExit                                              
c004c400  PBMQ_deq                                                            
c0043600  PBMQ_enq                                                            
c00b9d94  PBMQ_free                                                           
c003b180  PBM_alloc                                                           
c0052900  PBM_close                                                           
c00436e0  PBM_copy                                                            
c0038820  PBM_free                                                            
c00497a0  PBM_open                                                            
c0050fc0  PHYREG_read                                                         
c0049840  PHYREG_wait                                                         
c0046b60  PHYREG_waitResults                                                  
c00437c0  PHYREG_waitResultsAck                                               
c00ccf34  PITCount                                                            
c00ccf3c  PITHigh                                                             
c00ccf38  PITUsed                                                             
c00b9bd0  PageCount                                                           
c00b9bb0  PageMax                                                             
c00498e0  PipeCheck                                                           
c004c500  PipeClose                                                           
c002c880  PipeRecv                                                            
c0038980  PipeSend                                                            
c004eba0  RTCAddHook                                                          
c0040be0  RTCMsg                                                              
c004ec00  RTCRemoveHook                                                       
c002fe60  RTCReport                                                           
c0035160  Raw6Input                                                           
c0030060  Raw6Output                                                          
c003e3a0  RawEthRxPacket                                                      
c0040ce0  RawEthSockCheck                                                     
c004c580  RawEthSockClose                                                     
c002e540  RawEthSockNew                                                       
c00438a0  RawEthSockNotify                                                    
c0043980  RawEthSockPcbAttach                                                 
c004ec60  RawEthSockPcbCleanup                                                
c004c600  RawEthSockPcbDetach                                                 
c004ecc0  RawEthSockPcbFind                                                   
c0052920  RawEthSockPcbInit                                                   
c0052940  RawEthSockPrAttach                                                  
c0052960  RawEthSockPrDetach                                                  
c0043a60  RawEthSockSend                                                      
c002ae80  RawEthSockSet                                                       
c003e4c0  RawEthTxPacket                                                      
c002cac0  RawInput                                                            
c0038ae0  RawOutput                                                           
c0043b40  Route6Msg                                                           
c0049980  RouteMsg                                                            
c0010e40  Rt6Create                                                           
c0024200  Rt6Find                                                             
c0046c20  Rt6FindDefaultRouter                                                
c00287a0  Rt6Free                                                             
c0052980  Rt6GetIF                                                            
c00529a0  Rt6GetLLI                                                           
c00529c0  Rt6GetMTU                                                           
c004ed20  Rt6GetNetworkAddr                                                   
c00529e0  Rt6IncRefCount                                                      
c0051080  Rt6IsDefaultRoute                                                   
c0052a00  Rt6IsLocalRoute                                                     
c0031040  Rt6Modify                                                           
c004c680  Rt6Update                                                           
c001ddc0  RtCreate                                                            
c0046ce0  RtDeRef                                                             
c00255c0  RtFind                                                              
c0040de0  RtRedirect                                                          
c0043c20  RtRemove                                                            
c004c700  RtSetFailure                                                        
c004c780  RtSetTimeout                                                        
c0046da0  RtWalkBegin                                                         
c004ed80  RtWalkEnd                                                           
c0038da0  RtWalkNext                                                          
c0046e60  SB6Flush                                                            
c0049ac0  SB6Free                                                             
c003b400  SB6New                                                              
c0025880  SB6Read                                                             
c0046f20  SB6SetMax                                                           
c002b0e0  SB6Write                                                            
c0046fe0  SBFlush                                                             
c0049b60  SBFree                                                              
c003e5e0  SBNew                                                               
c001e160  SBRead                                                              
c0043d00  SBReadNC                                                            
c0043de0  SBSetMax                                                            
c002b340  SBWrite                                                             
c00ccf30  SPACE                                                               
c0049c00  SemCreate                                                           
c0052a20  SemDelete                                                           
c0052a40  SemPend                                                             
c0052a60  SemPost                                                             
c0052a80  SemReset                                                            
c00510c0  SemaphoreP_Params_init                                              
c0040ee0  SemaphoreP_create                                                   
c004ede0  SemaphoreP_delete                                                   
c0051100  SemaphoreP_pend                                                     
c0051140  SemaphoreP_post                                                     
c0051140  SemaphoreP_postFromClock                                            
c0051140  SemaphoreP_postFromISR                                              
c003b680  Sock6Accept                                                         
c004c800  Sock6Bind                                                           
c0039060  Sock6Check                                                          
c0049ca0  Sock6CleanPcb                                                       
c002b5a0  Sock6Close                                                          
c0015900  Sock6Connect                                                        
c00391c0  Sock6CreatePacket                                                   
c0040fe0  Sock6Disconnect                                                     
c0049d40  Sock6GetName                                                        
c0043ec0  Sock6IntAbort                                                       
c003b7c0  Sock6Listen                                                         
c00186e0  Sock6New                                                            
c001fd60  Sock6Notify                                                         
c0051180  Sock6PcbAttach                                                      
c0023340  Sock6PcbBind                                                        
c004c880  Sock6PcbCleanup                                                     
c0039320  Sock6PcbConnect                                                     
c004eea0  Sock6PcbDetach                                                      
c0025b40  Sock6PcbResolve                                                     
c00470a0  Sock6PcbResolveChain                                                
c0047160  Sock6PcbRtChange                                                    
c0052aa0  Sock6PrAttach                                                       
c004ef00  Sock6PrCtlError                                                     
c004ef60  Sock6PrDetach                                                       
c0016720  Sock6Recv                                                           
c001ac60  Sock6Send                                                           
c0015dc0  Sock6Set                                                            
c0052ac0  Sock6SetOOBData                                                     
c00511c0  Sock6SetOOBMark                                                     
c003e940  Sock6Shutdown                                                       
c0043fa0  Sock6SpawnAbort                                                     
c0044080  Sock6ValidateRoute                                                  
c003b900  SockAccept                                                          
c0049de0  SockBind                                                            
c0039480  SockCheck                                                           
c0049e80  SockCleanPcb                                                        
c0026e20  SockClose                                                           
c001efa0  SockConnect                                                         
c00354a0  SockCreatePacket                                                    
c0044160  SockDisconnect                                                      
c004c900  SockGetName                                                         
c0047220  SockIntAbort                                                        
c003ba40  SockListen                                                          
c0013b60  SockNew                                                             
c00200c0  SockNotify                                                          
c0051200  SockPcbAttach                                                       
c002b800  SockPcbBind                                                         
c004c980  SockPcbCleanup                                                      
c00395e0  SockPcbConnect                                                      
c003bb80  SockPcbCtlError                                                     
c004ca00  SockPcbDetach                                                       
c0028a20  SockPcbResolve                                                      
c004ca80  SockPcbResolveChain                                                 
c00472e0  SockPcbRtChange                                                     
c0052ae0  SockPrAttach                                                        
c004efc0  SockPrCtlError                                                      
c004f020  SockPrDetach                                                        
c0016bc0  SockRecv                                                            
c0028ca0  SockRecvNC                                                          
c001c760  SockSend                                                            
c000b520  SockSet                                                             
c0052b00  SockSetOOBData                                                      
c0051240  SockSetOOBMark                                                      
c003eb80  SockShutdown                                                        
c0044240  SockSpawnAbort                                                      
c00410e0  SockValidateRoute                                                   
c0017070  StackTest                                                           
c00473a0  TCP6Close                                                           
c0049f20  TCP6Drop                                                            
c0028f20  TCP6GenPacket                                                       
c0001a00  TCP6Input                                                           
c00045e0  TCP6Output                                                          
c003eca0  TCP6PrAttach                                                        
c004f080  TCP6PrConnect                                                       
c0049fc0  TCP6PrCtlError                                                      
c0044320  TCP6PrDetach                                                        
c0044400  TCP6PrDisconnect                                                    
c00412e0  TCP6PrInherit                                                       
c004cb00  TCP6PrListen                                                        
c0052b20  TCP6PrRecv                                                          
c004a060  TCP6PrSend                                                          
c004a100  TCP6PrSendOOB                                                       
c00270c0  TCP6PrSetOption                                                     
c004f0e0  TCP6SetPersist                                                      
c0052b40  TCP6TimeoutAdd                                                      
c001cb20  TCP6TimeoutCheck                                                    
c00398a0  TCP6TimeoutKeep                                                     
c004f140  TCP6TimeoutPersist                                                  
c0051280  TCP6TimeoutRemove                                                   
c00357e0  TCP6TimeoutRexmt                                                    
c00444e0  TCP6TimeoutSackRexmt                                                
c00512c0  TCP6TimeoutWait2                                                    
c00445c0  TCP6ValidateMetrics                                                 
c00413e0  TCP6XmitTimer                                                       
c0052b60  TaskBlock                                                           
c004a240  TaskCreate                                                          
c004f1a0  TaskDestroy                                                         
c0052b80  TaskExit                                                            
c0047460  TaskGetEnv                                                          
c0052ba0  TaskSelf                                                            
c004cb80  TaskSetEnv                                                          
c0052bc0  TaskSetPri                                                          
c0018280  TaskSleep                                                           
c0047520  TcpChecksum                                                         
c00475e0  TcpClose                                                            
c004a2e0  TcpDrop                                                             
c0031400  TcpGenPacket                                                        
c0000000  TcpInput                                                            
c00033a0  TcpOutput                                                           
c003edc0  TcpPrAttach                                                         
c004f200  TcpPrConnect                                                        
c004a380  TcpPrCtlError                                                       
c00446a0  TcpPrDetach                                                         
c0044780  TcpPrDisconnect                                                     
c00414e0  TcpPrInherit                                                        
c004cc00  TcpPrListen                                                         
c0052be0  TcpPrRecv                                                           
c004a420  TcpPrSend                                                           
c004a4c0  TcpPrSendOOB                                                        
c0027360  TcpPrSetOption                                                      
c004f260  TcpSetPersist                                                       
c0052c00  TcpTimeoutAdd                                                       
c001cee0  TcpTimeoutCheck                                                     
c0039a00  TcpTimeoutKeep                                                      
c004f2c0  TcpTimeoutPersist                                                   
c0051300  TcpTimeoutRemove                                                    
c00315e0  TcpTimeoutRexmt                                                     
c0044860  TcpTimeoutSackRexmt                                                 
c0051340  TcpTimeoutWait2                                                     
c0044940  TcpValidateMetrics                                                  
c00415e0  TcpXmitTimer                                                        
c003d2c0  TelnetClose                                                         
c003eee0  TelnetOpen                                                          
c0052c20  TimerFree                                                           
c004cc80  TimerHSTick                                                         
c004a560  TimerNew                                                            
c00c5388  UART_FxnTable_v0                                                    
c0052c40  UART_Params_init                                                    
c0051380  UART_breakCtl_v0                                                    
c00513c0  UART_charGetNonBlocking_v0                                          
c004cd80  UART_charPut_v0                                                     
c00c5358  UART_config                                                         
c00c4ffc  UART_defaultParams                                                  
c00c503c  UART_defaultTransaction                                             
c0052c80  UART_divisorLatchDisable_v0                                         
c004f320  UART_divisorLatchWrite_v0                                           
c0051400  UART_divisorValCompute_v0                                           
c0052ca0  UART_fIFOCharPut_v0                                                 
c0051440  UART_fIFOConfig_v0                                                  
c0051480  UART_fIFORegisterWrite_v0                                           
c0052cc0  UART_fifoEmpty_v0                                                   
c004f380  UART_fifoWait_v0                                                    
c004a600  UART_init                                                           
c00514c0  UART_intDisable_v0                                                  
c0051500  UART_intEnable_v0                                                   
c0051540  UART_intIdentityGet_v0                                              
c004f440  UART_lineCharacConfig_v0                                            
c0051580  UART_loopbackModeControl_v0                                         
c00515c0  UART_open                                                           
c0052d00  UART_operatingModeSelect_v0                                         
c00062e0  UART_printf                                                         
c0050880  UART_putc                                                           
c0052d20  UART_pwremuConfig_v0                                                
c0051600  UART_readLineStatus_v0                                              
c004a6a0  UART_stdioInit                                                      
c0052d40  UART_write                                                          
c0052d60  UART_writePolling                                                   
c00b9328  UartObjects                                                         
c0023640  Udp6Input                                                           
c0025e00  Udp6Output                                                          
c0044da0  UdpChecksum                                                         
c0014f40  UdpInput                                                            
c00247c0  UdpOutput                                                           
c0044e80  VLANDeinit                                                          
c004f620  VLANInit                                                            
c0044f60  VLANReceivePacket                                                   
c00ccf58  VerStr                                                              
c0051640  _DebugP_assert                                                      
c00b9ad0  _ICMPIn                                                             
c00cd014  _ICMPInErrors                                                       
c00b9b20  _ICMPOut                                                            
c00cd018  _ICMPOutErrors                                                      
c00ccfe8  _IGMPForceVersion1                                                  
c00ccea8  _IGMPInDiscard                                                      
c00cceac  _IGMPInQuery                                                        
c00cceb0  _IGMPInQueryGroup                                                   
c00cceb4  _IGMPInResponse                                                     
c00cceb8  _IGMPOutResponse                                                    
c00cd01c  _IPExecuting                                                        
c00cd080  _IPReasmPtr                                                         
c0045120  _LLIExpListInsert                                                   
c004cf00  _LLIExpListRemove                                                   
c0033140  _LLITimeoutCheck                                                    
c004a880  _LLITimeoutFlush                                                    
c0045200  _RtExpListInsert                                                    
c004d000  _RtExpListRemove                                                    
c003f000  _RtNodeInsert                                                       
c00452e0  _RtNodeRemove                                                       
c0052d80  _TaskInit                                                           
c0052da0  _TaskShutdown                                                       
c0000000  __ASM__                                                             
c00cd298  __CIOBUF_                                                           
c0000068  __ISA__                                                             
c0000080  __PLAT__                                                            
c00000a8  __TARG__                                                            
c00ce298  __TI_CINIT_Base                                                     
c00ce2f0  __TI_CINIT_Limit                                                    
c00ce28c  __TI_Handler_Table_Base                                             
c00ce294  __TI_Handler_Table_Limit                                            
UNDEFED   __TI_INITARRAY_Base                                                 
UNDEFED   __TI_INITARRAY_Limit                                                
c00ccad8  __TI_STACK_END                                                      
00001000  __TI_STACK_SIZE                                                     
c00cce90  __TI_STATIC_BASE                                                    
UNDEFED   __TI_TLS_INIT_Base                                                  
UNDEFED   __TI_TLS_INIT_Limit                                                 
c004a920  __TI_cleanup                                                        
c00caa04  __TI_cleanup_ptr                                                    
c003bcc0  __TI_closefile                                                      
c0052f20  __TI_decompress_none                                                
c0052f40  __TI_decompress_rle24                                               
c0047a60  __TI_doflush                                                        
c00caa08  __TI_dtors_ptr                                                      
c00caa0c  __TI_enable_exit_profile_output                                     
c00ca564  __TI_ft_end                                                         
ffffffff  __TI_pprof_out_hndl                                                 
ffffffff  __TI_prof_data_size                                                 
ffffffff  __TI_prof_data_start                                                
c004d080  __TI_readmsg                                                        
c0048660  __TI_tls_init                                                       
c00b94c0  __TI_tmpnams                                                        
c004f6e0  __TI_writemsg                                                       
c00418e0  __TI_wrt_ok                                                         
c00000d0  __TRDR__                                                            
ffffffff  __binit__                                                           
c0047b20  __c6xabi_divu                                                       
c002ba60  __c6xabi_divull                                                     
c004d100  __c6xabi_llshl                                                      
c004f740  __c6xabi_llshru                                                     
c0047be0  __c6xabi_remi                                                       
c004a9c0  __c6xabi_remu                                                       
c0051680  __c6xabi_strasgi_64plus                                             
ffffffff  __c_args__                                                          
c0047b20  __divu                                                              
c0047be0  __remi                                                              
c004a9c0  __remu                                                              
c0051680  __strasgi_64plus                                                    
c00516c0  _args_main                                                          
00000000  _argsize                                                            
c003be00  _auto_init_elf                                                      
c004aa60  _c_int00                                                            
c00c42a8  _ctypes_                                                            
c00ca2e8  _device                                                             
c00c9cd0  _ftable                                                             
c00ca090  _ipcfg                                                              
c0052dc0  _llSerialInit                                                       
c0052de0  _llSerialServiceCheck                                               
c0052e00  _llSerialShutdown                                                   
c0051700  _llTimerInit                                                        
c0052e20  _llTimerShutdown                                                    
c0052e40  _llUserLedInit                                                      
c0052e60  _llUserLedShutdown                                                  
c00ca144  _lock                                                               
c001d660  _mmCheck                                                            
c0039b60  _mmInit                                                             
c0052e80  _nop                                                                
c00ca7e4  _oscfg                                                              
c0052ea0  _register_lock                                                      
c0052ec0  _register_unlock                                                    
c00cbad8  _stack                                                              
c00ca148  _stream                                                             
c004f7a0  _subcull                                                            
c00ca3cc  _unlock                                                             
c0052f00  abort                                                               
c0030460  accept                                                              
c00419e0  atoi                                                                
c0039cc0  authInit                                                            
c004aba0  authStart                                                           
c0037400  bind                                                                
ffffffff  binit                                                               
c0019be0  chapInput                                                           
c00453c0  close                                                               
c004ac40  dhcpBuildDecline                                                    
c004f8c0  dhcpBuildDiscover                                                   
c0035b20  dhcpBuildOptions                                                    
c0037580  dhcpBuildRequest                                                    
c003c080  dhcpDecodeType                                                      
c0047ca0  dhcpOptionsClear                                                    
c001f320  dhcpPacketProcess                                                   
c004f920  dhcpPacketReceive                                                   
c004f980  dhcpPacketSend                                                      
c004f9e0  dhcpSocketClose                                                     
c0031b80  dhcpSocketOpen                                                      
c002cf40  dhcpState                                                           
c002d180  dhcpVerifyMessage                                                   
c0048720  dtask_udp_hello                                                     
c004d200  efs_fclose                                                          
c001b060  efs_filecheck                                                       
c004d280  efs_filesend                                                        
c0047d60  efs_fopen                                                           
c0052f60  efs_getfilesize                                                     
c0051780  efs_loadfunction                                                    
c0047ee0  emacLinkUpProcessing                                                
c004fa40  emac_close                                                          
c00cd100  emac_comm_dev0                                                      
c00cd280  emac_comm_pcb0                                                      
c004ad80  emac_config                                                         
c000da60  emac_init                                                           
c003f240  emac_int_service                                                    
c00b28c0  emac_mcb                                                            
c004ae20  emac_open                                                           
c004aec0  emac_poll                                                           
c0035cc0  emac_reset                                                          
c0041ce0  emac_reset_queue                                                    
c004af60  emac_send                                                           
c0045580  exit                                                                
c0033680  fdClose                                                             
c004b000  fdCloseSession                                                      
c003f480  fdOpenSession                                                       
c000bcc0  fdPoll                                                              
c0018b20  fdSelect                                                            
c0051800  fdSelectAbort                                                       
c004fb00  fdint_clearevent                                                    
c0051840  fdint_freefdt                                                       
c004fb60  fdint_getfdt                                                        
c0045660  fdint_lockfd                                                        
c004fbc0  fdint_setevent                                                      
c0052f80  fdint_signaltimeout                                                 
c0045740  fdint_unlockfd                                                      
c004d380  fdint_waitevent                                                     
c004fc20  fdsetTestEntry                                                      
c003c1c0  fflush                                                              
c004d400  finddevice                                                          
c002e980  fputc                                                               
c001b840  fputs                                                               
c0051880  free                                                                
c003f5a0  fseek                                                               
c00cd02c  gFragQList                                                          
c00cd088  gMLDNodeList                                                        
c00ca948  gOsal_HwAttrs                                                       
c003c300  getdevice                                                           
c0035e60  getpeername                                                         
c003c440  httpAuthenticationReq                                               
c0008bc0  httpClientProcess                                                   
c003d2c0  httpClose                                                           
c00cd070  httpErrorResponseHook                                               
c003f6c0  httpOpen                                                            
c002bcc0  httpParseRecv                                                       
c004fc80  httpSendClientStr                                                   
c004d480  httpSendEntityLength                                                
c004d500  httpSendErrorResponse                                               
c0047fa0  httpSendFullResponse                                                
c003f7e0  httpSendStatusLine                                                  
c00b9d24  icmp6stats                                                          
c00518c0  inet_addr                                                           
c0023940  inet_aton                                                           
c004fce0  ipcpInit                                                            
c000a580  ipcpInput                                                           
c004fd40  ipcpStart                                                           
c00b9bec  ips                                                                 
c00b9858  ipv6mcb                                                             
c004fda0  lcpClose                                                            
c004b0a0  lcpInit                                                             
c0008220  lcpInput                                                            
c0041de0  lcpOpen                                                             
c003f900  lcpReject                                                           
c0051900  list_add                                                            
c004fe00  list_cat                                                            
c0052fa0  list_get_head                                                       
c0052fc0  list_get_next                                                       
c0051940  list_remove                                                         
c004fe60  list_remove_node                                                    
c0041ee0  listen                                                              
c0037700  llEnter                                                             
c0045900  llExit                                                              
c0052fe0  llSerialService                                                     
c0053000  llTimerGetStartTime                                                 
c004d580  llTimerGetTime                                                      
c004b1e0  llTimerTick                                                         
c004fec0  lseek                                                               
c0017060  main                                                                
c004ff20  malloc                                                              
c004b280  memcpy                                                              
c00459e0  memset                                                              
c0020ac0  mmAlloc                                                             
c0045ac0  mmBulkAlloc                                                         
c004b320  mmBulkFree                                                          
c003c580  mmCopy                                                              
c0041fe0  mmFree                                                              
c0048060  mmZeroInit                                                          
c00b9c54  nimu_mcb                                                            
c001e500  papInput                                                            
c00b9da0  parmbuf                                                             
c00a6700  pit                                                                 
c00a68c0  pitBuffer                                                           
c0013080  pppEvent                                                            
c0045ba0  pppFree                                                             
c0024aa0  pppInput                                                            
c0017e20  pppNew                                                              
c004ffe0  pppoeInput                                                          
c0020e00  pppoeSI                                                             
c0050040  printf                                                              
c00caad8  printlog                                                            
c00ca858  pstrMsgName                                                         
c00cd054  pt6TimeFirst                                                        
c00cd050  ptTimeFirst                                                         
c002e980  putc                                                                
c0053020  putchar                                                             
c0051980  puts                                                                
c00b9d74  raw6_stats                                                          
c0053bfc  raweth_pcb                                                          
c00b9d84  raweths                                                             
c00b9d64  raws                                                                
c003c6c0  recv                                                                
c00500a0  recvncfree                                                          
c0033a00  recvncfrom                                                          
c004de00  remove                                                              
c003c800  send                                                                
c0031f40  sendto                                                              
c003a0e0  setsockopt                                                          
c002edc0  setvbuf                                                             
c003fa20  socket                                                              
c00519c0  sprintf                                                             
c00b9d54  stkEvent                                                            
c0050160  strcpy                                                              
c004b460  stricmp                                                             
c0051a00  strlen                                                              
c004b500  strstr                                                              
c00cd058  tcp6_iss                                                            
c00b9974  tcp6_stats                                                          
c00cd04c  tcp_iss                                                             
c00b98b0  tcps                                                                
c003a240  telnetClientProcess                                                 
c00501c0  ti_ndk_config_Global_stackThread                                    
c00ca808  ti_sysbios_BIOS_Module__state__V                                    
c0051d80  ti_sysbios_BIOS_RtsGateProxy_Handle__label__S                       
c00504c0  ti_sysbios_BIOS_RtsGateProxy_Object__delete__S                      
c0053040  ti_sysbios_BIOS_RtsGateProxy_enter__E                               
c0053060  ti_sysbios_BIOS_RtsGateProxy_leave__E                               
c00533c0  ti_sysbios_BIOS_RtsGateProxy_query__E                               
c004d680  ti_sysbios_BIOS_atExitFunc__I                                       
c0050220  ti_sysbios_BIOS_errorRaiseHook__I                                   
c0051a40  ti_sysbios_BIOS_exitFunc__I                                         
c0053080  ti_sysbios_BIOS_getCpuFreq__E                                       
c00530a0  ti_sysbios_BIOS_getThreadType__E                                    
c00530c0  ti_sysbios_BIOS_linkedWithIncorrectBootLibrary__E                   
c00530e0  ti_sysbios_BIOS_nullFunc__I                                         
c004d700  ti_sysbios_BIOS_registerRTSLock__I                                  
c0050280  ti_sysbios_BIOS_removeRTSLock__I                                    
c0051a80  ti_sysbios_BIOS_rtsLock__I                                          
c0051ac0  ti_sysbios_BIOS_rtsUnlock__I                                        
c0053100  ti_sysbios_BIOS_setThreadType__E                                    
c00502e0  ti_sysbios_BIOS_startFunc__I                                        
c0053120  ti_sysbios_BIOS_start__E                                            
c0053140  ti_sysbios_family_c62_TaskSupport_Module__startupDone__S            
c0051740  ti_sysbios_family_c62_TaskSupport_buildTaskStack                    
c0053160  ti_sysbios_family_c62_TaskSupport_checkStack__E                     
c0053180  ti_sysbios_family_c62_TaskSupport_getStackAlignment__E              
c0052ee0  ti_sysbios_family_c62_TaskSupport_glue                              
c00c59d4  ti_sysbios_family_c62_TaskSupport_stackAlignment__C                 
c0050340  ti_sysbios_family_c62_TaskSupport_start__E                          
c004d180  ti_sysbios_family_c62_TaskSupport_swap__E                           
c00c59f0  ti_sysbios_family_c64p_Cache_EMIFA_BASE__C                          
c00c59f4  ti_sysbios_family_c64p_Cache_EMIFA_CFG__C                           
c00c59f8  ti_sysbios_family_c64p_Cache_EMIFA_LENGTH__C                        
c00c59fc  ti_sysbios_family_c64p_Cache_EMIFB_BASE__C                          
c00c5a00  ti_sysbios_family_c64p_Cache_EMIFB_CFG__C                           
c00c5a04  ti_sysbios_family_c64p_Cache_EMIFB_LENGTH__C                        
c00c5a08  ti_sysbios_family_c64p_Cache_EMIFC_BASE__C                          
c00c5a0c  ti_sysbios_family_c64p_Cache_EMIFC_CFG__C                           
c00c5a10  ti_sysbios_family_c64p_Cache_EMIFC_LENGTH__C                        
c00c5a14  ti_sysbios_family_c64p_Cache_E_invalidL1CacheSize__C                
c00c5a18  ti_sysbios_family_c64p_Cache_E_invalidL2CacheSize__C                
c00c5a1c  ti_sysbios_family_c64p_Cache_MAR0_31__C                             
c00c5a20  ti_sysbios_family_c64p_Cache_MAR128_159__C                          
c00c5a24  ti_sysbios_family_c64p_Cache_MAR160_191__C                          
c00c5a28  ti_sysbios_family_c64p_Cache_MAR192_223__C                          
c00c5a2c  ti_sysbios_family_c64p_Cache_MAR224_255__C                          
c00c5a30  ti_sysbios_family_c64p_Cache_MAR32_63__C                            
c00c5a34  ti_sysbios_family_c64p_Cache_MAR64_95__C                            
c00c5a38  ti_sysbios_family_c64p_Cache_MAR96_127__C                           
c00c4cbe  ti_sysbios_family_c64p_Cache_Module__id__C                          
c00ca71c  ti_sysbios_family_c64p_Cache_Module__state__V                       
c0014080  ti_sysbios_family_c64p_Cache_Module_startup__E                      
c002c180  ti_sysbios_family_c64p_Cache_block__I                               
c00361a0  ti_sysbios_family_c64p_Cache_getL2InitSize__I                       
c004d780  ti_sysbios_family_c64p_Cache_invL1pAll__E                           
00008000  ti_sysbios_family_c64p_Cache_l1dSize                                
00008000  ti_sysbios_family_c64p_Cache_l1pSize                                
00000000  ti_sysbios_family_c64p_Cache_l2Size                                 
c00503a0  ti_sysbios_family_c64p_Cache_setMar__E                              
c00531a0  ti_sysbios_family_c64p_Cache_wbInv__E                               
c00c5a3c  ti_sysbios_family_c64p_EventCombiner_A_invalidEventId__C            
c00c5978  ti_sysbios_family_c64p_EventCombiner_EVTMASK__C                     
c00c5a40  ti_sysbios_family_c64p_EventCombiner_E_unpluggedEvent__C            
c00c5a44  ti_sysbios_family_c64p_EventCombiner_Module__diagsEnabled__C        
c00c5a48  ti_sysbios_family_c64p_EventCombiner_Module__diagsIncluded__C       
c00c5a4c  ti_sysbios_family_c64p_EventCombiner_Module__diagsMask__C           
c00c4ea6  ti_sysbios_family_c64p_EventCombiner_Module__id__C                  
c00c98d0  ti_sysbios_family_c64p_EventCombiner_Module__state__V               
c0051b00  ti_sysbios_family_c64p_EventCombiner_Module_startup__E              
c0051b40  ti_sysbios_family_c64p_EventCombiner_disableEvent__E                
c0030660  ti_sysbios_family_c64p_EventCombiner_dispatchPlug__E                
c002d3c0  ti_sysbios_family_c64p_EventCombiner_dispatch__E                    
c0051b80  ti_sysbios_family_c64p_EventCombiner_enableEvent__E                 
c0050400  ti_sysbios_family_c64p_EventCombiner_unused__E                      
c00c5a50  ti_sysbios_family_c64p_Exception_E_exceptionMax__C                  
c00c519a  ti_sysbios_family_c64p_Exception_Module__id__C                      
c00ca754  ti_sysbios_family_c64p_Exception_Module__state__V                   
c004b5a0  ti_sysbios_family_c64p_Exception_Module_startup__E                  
c0037a00  ti_sysbios_family_c64p_Exception_dispatch__E                        
c00c5a54  ti_sysbios_family_c64p_Exception_exceptionHook__C                   
c00c5a58  ti_sysbios_family_c64p_Exception_externalHook__C                    
c000c460  ti_sysbios_family_c64p_Exception_handler__I                         
c002d600  ti_sysbios_family_c64p_Exception_internalHandler__I                 
c00c5a5c  ti_sysbios_family_c64p_Exception_internalHook__C                    
c00c5a60  ti_sysbios_family_c64p_Exception_nmiHook__C                         
c00c5356  ti_sysbios_family_c64p_Exception_useInternalBuffer__C               
c00cd400  ti_sysbios_family_c64p_Hwi0                                         
c00c5a64  ti_sysbios_family_c64p_Hwi_E_alreadyDefined__C                      
c00c5a68  ti_sysbios_family_c64p_Hwi_E_handleNotFound__C                      
c00c5a6c  ti_sysbios_family_c64p_Hwi_E_invalidIntNum__C                       
c00422e0  ti_sysbios_family_c64p_Hwi_Instance_finalize__E                     
c003c940  ti_sysbios_family_c64p_Hwi_Instance_init__E                         
c00c5a70  ti_sysbios_family_c64p_Hwi_LD_end__C                                
c00c5a74  ti_sysbios_family_c64p_Hwi_LM_begin__C                              
c00c5a78  ti_sysbios_family_c64p_Hwi_Module__diagsEnabled__C                  
c00c5a7c  ti_sysbios_family_c64p_Hwi_Module__diagsIncluded__C                 
c00c5a80  ti_sysbios_family_c64p_Hwi_Module__diagsMask__C                     
c00c57ca  ti_sysbios_family_c64p_Hwi_Module__id__C                            
c00c586a  ti_sysbios_family_c64p_Hwi_Module__loggerDefined__C                 
c00c5a84  ti_sysbios_family_c64p_Hwi_Module__loggerFxn1__C                    
c00c5a88  ti_sysbios_family_c64p_Hwi_Module__loggerFxn8__C                    
c00c5a8c  ti_sysbios_family_c64p_Hwi_Module__loggerObj__C                     
c00caa38  ti_sysbios_family_c64p_Hwi_Module__root__V                          
c00531c0  ti_sysbios_family_c64p_Hwi_Module__startupDone__F                   
c00531c0  ti_sysbios_family_c64p_Hwi_Module__startupDone__S                   
c00ca360  ti_sysbios_family_c64p_Hwi_Module__state__V                         
c003ca80  ti_sysbios_family_c64p_Hwi_Module_startup__E                        
c00c5630  ti_sysbios_family_c64p_Hwi_Object__DESC__C                          
c00c53b8  ti_sysbios_family_c64p_Hwi_Object__PARAMS__C                        
c00481e0  ti_sysbios_family_c64p_Hwi_Object__create__S                        
c0050460  ti_sysbios_family_c64p_Hwi_Object__delete__S                        
c0051bc0  ti_sysbios_family_c64p_Hwi_Object__destruct__S                      
c00ca960  ti_sysbios_family_c64p_Hwi_Object__table__V                         
c00531e0  ti_sysbios_family_c64p_Hwi_Params__init__S                          
c0053200  ti_sysbios_family_c64p_Hwi_clearInterrupt__E                        
c004b640  ti_sysbios_family_c64p_Hwi_construct                                
c0053220  ti_sysbios_family_c64p_Hwi_destruct                                 
c0051c00  ti_sysbios_family_c64p_Hwi_disableInterrupt__E                      
c0030260  ti_sysbios_family_c64p_Hwi_dispatchAlways                           
c004b6e0  ti_sysbios_family_c64p_Hwi_dispatchC__I                             
c002c3e0  ti_sysbios_family_c64p_Hwi_dispatchCore__I                          
c0051c40  ti_sysbios_family_c64p_Hwi_enableInterrupt__E                       
c0051c80  ti_sysbios_family_c64p_Hwi_getEventId__E                            
c0053240  ti_sysbios_family_c64p_Hwi_getFunc__E                               
c0053260  ti_sysbios_family_c64p_Hwi_getHandle__E                             
c004b780  ti_sysbios_family_c64p_Hwi_getStackInfo__E                          
c00cd400  ti_sysbios_family_c64p_Hwi_int0                                     
c00cd420  ti_sysbios_family_c64p_Hwi_int1                                     
c00cd540  ti_sysbios_family_c64p_Hwi_int10                                    
c00cd560  ti_sysbios_family_c64p_Hwi_int11                                    
c00cd580  ti_sysbios_family_c64p_Hwi_int12                                    
c00cd5a0  ti_sysbios_family_c64p_Hwi_int13                                    
c00cd5c0  ti_sysbios_family_c64p_Hwi_int14                                    
c00cd5e0  ti_sysbios_family_c64p_Hwi_int15                                    
c00cd440  ti_sysbios_family_c64p_Hwi_int2                                     
c00cd460  ti_sysbios_family_c64p_Hwi_int3                                     
c00cd480  ti_sysbios_family_c64p_Hwi_int4                                     
c00cd4a0  ti_sysbios_family_c64p_Hwi_int5                                     
c00cd4c0  ti_sysbios_family_c64p_Hwi_int6                                     
c00cd4e0  ti_sysbios_family_c64p_Hwi_int7                                     
c00cd500  ti_sysbios_family_c64p_Hwi_int8                                     
c00cd520  ti_sysbios_family_c64p_Hwi_int9                                     
c004ab00  ti_sysbios_family_c64p_Hwi_plug__E                                  
c0029420  ti_sysbios_family_c64p_Hwi_reconfig__E                              
c0053280  ti_sysbios_family_c64p_Hwi_startup__E                               
c004f800  ti_sysbios_family_c64p_Hwi_switchAndDispatch__I                     
c00532a0  ti_sysbios_family_c64p_Hwi_switchFromBootStack__E                   
c00532c0  ti_sysbios_family_c64p_Hwi_unPluggedInterrupt__I                    
c00532e0  ti_sysbios_family_c64p_TimestampProvider_Module_startup__E          
c0053300  ti_sysbios_family_c64p_TimestampProvider_get64__E                   
c0053080  ti_sysbios_family_c64p_TimestampProvider_getFreq__E                 
c00caa40  ti_sysbios_family_c64p_primus_TimerSupport_Module_State_0_suspSrc__A
c00ca784  ti_sysbios_family_c64p_primus_TimerSupport_Module__state__V         
c0051cc0  ti_sysbios_family_c64p_primus_TimerSupport_enable__E                
c004f860  ti_sysbios_family_xxx_Hwi_switchAndRunFunc                          
c0051d00  ti_sysbios_gates_GateHwi_Handle__label__S                           
c0053320  ti_sysbios_gates_GateHwi_Instance_init__E                           
c00c555c  ti_sysbios_gates_GateHwi_Module__FXNS__C                            
c00caa48  ti_sysbios_gates_GateHwi_Module__root__V                            
c00c5650  ti_sysbios_gates_GateHwi_Object__DESC__C                            
c00c5888  ti_sysbios_gates_GateHwi_Object__PARAMS__C                          
c004d800  ti_sysbios_gates_GateHwi_Object__create__S                          
c0051d40  ti_sysbios_gates_GateHwi_Object__delete__S                          
c00caac8  ti_sysbios_gates_GateHwi_Object__table__V                           
c0053340  ti_sysbios_gates_GateHwi_enter__E                                   
c0053360  ti_sysbios_gates_GateHwi_leave__E                                   
c0053380  ti_sysbios_gates_GateHwi_query__E                                   
c00c5a90  ti_sysbios_gates_GateMutex_A_badContext__C                          
c0051d80  ti_sysbios_gates_GateMutex_Handle__label__S                         
c00c5a94  ti_sysbios_gates_GateMutex_Instance_State_sem__O                    
c00533a0  ti_sysbios_gates_GateMutex_Instance_finalize__E                     
c0051dc0  ti_sysbios_gates_GateMutex_Instance_init__E                         
c00c5580  ti_sysbios_gates_GateMutex_Module__FXNS__C                          
c00c5a98  ti_sysbios_gates_GateMutex_Module__diagsEnabled__C                  
c00c5a9c  ti_sysbios_gates_GateMutex_Module__diagsIncluded__C                 
c00c5aa0  ti_sysbios_gates_GateMutex_Module__diagsMask__C                     
c00c5916  ti_sysbios_gates_GateMutex_Module__id__C                            
c00caa50  ti_sysbios_gates_GateMutex_Module__root__V                          
c00c5670  ti_sysbios_gates_GateMutex_Object__DESC__C                          
c00c58a0  ti_sysbios_gates_GateMutex_Object__PARAMS__C                        
c004d880  ti_sysbios_gates_GateMutex_Object__create__S                        
c00504c0  ti_sysbios_gates_GateMutex_Object__delete__S                        
c00ca6a8  ti_sysbios_gates_GateMutex_Object__table__V                         
c0032120  ti_sysbios_gates_GateMutex_enter__E                                 
c0051e00  ti_sysbios_gates_GateMutex_leave__E                                 
c00533c0  ti_sysbios_gates_GateMutex_query__E                                 
c00531a0  ti_sysbios_hal_Cache_CacheProxy_wbInv__E                            
c00c5aa4  ti_sysbios_hal_Hwi_E_stackOverflow__C                               
c00531c0  ti_sysbios_hal_Hwi_HwiProxy_Module__startupDone__S                  
c00533e0  ti_sysbios_hal_Hwi_HwiProxy_Object__create__S                       
c0050460  ti_sysbios_hal_Hwi_HwiProxy_Object__delete__S                       
c00531e0  ti_sysbios_hal_Hwi_HwiProxy_Params__init__S                         
c0053200  ti_sysbios_hal_Hwi_HwiProxy_clearInterrupt__E                       
c0051e40  ti_sysbios_hal_Hwi_HwiProxy_create                                  
c0053400  ti_sysbios_hal_Hwi_HwiProxy_delete                                  
c0051c00  ti_sysbios_hal_Hwi_HwiProxy_disableInterrupt__E                     
c0053420  ti_sysbios_hal_Hwi_HwiProxy_disable__E                              
c0051c40  ti_sysbios_hal_Hwi_HwiProxy_enableInterrupt__E                      
c004b780  ti_sysbios_hal_Hwi_HwiProxy_getStackInfo__E                         
c0053440  ti_sysbios_hal_Hwi_HwiProxy_restore__E                              
c0053280  ti_sysbios_hal_Hwi_HwiProxy_startup__E                              
c00532a0  ti_sysbios_hal_Hwi_HwiProxy_switchFromBootStack__E                  
c0053460  ti_sysbios_hal_Hwi_Instance_finalize__E                             
c0050520  ti_sysbios_hal_Hwi_Instance_init__E                                 
c00c5ca0  ti_sysbios_hal_Hwi_Module__id__C                                    
c00caa58  ti_sysbios_hal_Hwi_Module__root__V                                  
c0053480  ti_sysbios_hal_Hwi_Module_startup__E                                
c00c5690  ti_sysbios_hal_Hwi_Object__DESC__C                                  
c00c5444  ti_sysbios_hal_Hwi_Object__PARAMS__C                                
c00482a0  ti_sysbios_hal_Hwi_Object__create__S                                
c00caa60  ti_sysbios_hal_Hwi_Object__table__V                                 
c00534a0  ti_sysbios_hal_Hwi_Params__init__S                                  
c004d900  ti_sysbios_hal_Hwi_checkStack                                       
c004d980  ti_sysbios_hal_Hwi_initStack                                        
c00c5aa8  ti_sysbios_heaps_HeapBuf_Instance_State_freeList__O                 
c00ca82c  ti_sysbios_heaps_HeapBuf_Module__state__V                           
c0036340  ti_sysbios_heaps_HeapBuf_Module_startup__E                          
c00c5aac  ti_sysbios_heaps_HeapBuf_Object__count__C                           
c00534c0  ti_sysbios_heaps_HeapBuf_Object__get__S                             
c00c5ab0  ti_sysbios_heaps_HeapBuf_numConstructedHeaps__C                     
c00c5ab4  ti_sysbios_heaps_HeapMem_A_align__C                                 
c00c5ab8  ti_sysbios_heaps_HeapMem_A_heapSize__C                              
c00c5abc  ti_sysbios_heaps_HeapMem_A_invalidFree__C                           
c00c5ac0  ti_sysbios_heaps_HeapMem_A_zeroBlock__C                             
c00c5ac4  ti_sysbios_heaps_HeapMem_E_memory__C                                
c0051e80  ti_sysbios_heaps_HeapMem_Handle__label__S                           
c00b9dd0  ti_sysbios_heaps_HeapMem_Instance_State_0_buf__A                    
c00260c0  ti_sysbios_heaps_HeapMem_Instance_init__E                           
c0051d80  ti_sysbios_heaps_HeapMem_Module_GateProxy_Handle__label__S          
c00504c0  ti_sysbios_heaps_HeapMem_Module_GateProxy_Object__delete__S         
c00534e0  ti_sysbios_heaps_HeapMem_Module_GateProxy_enter__E                  
c0053500  ti_sysbios_heaps_HeapMem_Module_GateProxy_leave__E                  
c00533c0  ti_sysbios_heaps_HeapMem_Module_GateProxy_query__E                  
c00c54c0  ti_sysbios_heaps_HeapMem_Module__FXNS__C                            
c00c5ac8  ti_sysbios_heaps_HeapMem_Module__diagsEnabled__C                    
c00c5acc  ti_sysbios_heaps_HeapMem_Module__diagsIncluded__C                   
c00c5ad0  ti_sysbios_heaps_HeapMem_Module__diagsMask__C                       
c00c5ad4  ti_sysbios_heaps_HeapMem_Module__gateObj__C                         
c00c5ca2  ti_sysbios_heaps_HeapMem_Module__id__C                              
c00caa68  ti_sysbios_heaps_HeapMem_Module__root__V                            
c00c56b0  ti_sysbios_heaps_HeapMem_Object__DESC__C                            
c00c55a4  ti_sysbios_heaps_HeapMem_Object__PARAMS__C                          
c00c5ad8  ti_sysbios_heaps_HeapMem_Object__count__C                           
c004da00  ti_sysbios_heaps_HeapMem_Object__create__S                          
c0051ec0  ti_sysbios_heaps_HeapMem_Object__delete__S                          
c0051f00  ti_sysbios_heaps_HeapMem_Object__get__S                             
c00ca978  ti_sysbios_heaps_HeapMem_Object__table__V                           
c0010200  ti_sysbios_heaps_HeapMem_allocUnprotected__E                        
c0045c80  ti_sysbios_heaps_HeapMem_alloc__E                                   
c0012560  ti_sysbios_heaps_HeapMem_freeUnprotected__E                         
c0050580  ti_sysbios_heaps_HeapMem_free__E                                    
c0048360  ti_sysbios_heaps_HeapMem_getStats__E                                
c004b820  ti_sysbios_heaps_HeapMem_init__I                                    
c0053520  ti_sysbios_heaps_HeapMem_isBlocking__E                              
c00c5adc  ti_sysbios_heaps_HeapMem_reqAlign__C                                
c00c5ae0  ti_sysbios_knl_Clock_A_badThreadType__C                             
c0026380  ti_sysbios_knl_Clock_Instance_init__E                               
c00c5ae4  ti_sysbios_knl_Clock_LM_begin__C                                    
c00c5ae8  ti_sysbios_knl_Clock_LM_tick__C                                     
c00c5aec  ti_sysbios_knl_Clock_LW_delayed__C                                  
c00c5af0  ti_sysbios_knl_Clock_Module_State_clockQ__O                         
c00c5af4  ti_sysbios_knl_Clock_Module__diagsEnabled__C                        
c00c5af8  ti_sysbios_knl_Clock_Module__diagsIncluded__C                       
c00c5afc  ti_sysbios_knl_Clock_Module__diagsMask__C                           
c00c5ca4  ti_sysbios_knl_Clock_Module__id__C                                  
c00c5ca6  ti_sysbios_knl_Clock_Module__loggerDefined__C                       
c00c5b00  ti_sysbios_knl_Clock_Module__loggerFxn1__C                          
c00c5b04  ti_sysbios_knl_Clock_Module__loggerFxn2__C                          
c00c5b08  ti_sysbios_knl_Clock_Module__loggerObj__C                           
c00caa70  ti_sysbios_knl_Clock_Module__root__V                                
c00ca7b8  ti_sysbios_knl_Clock_Module__state__V                               
c00505e0  ti_sysbios_knl_Clock_Module_startup__E                              
c00c56d0  ti_sysbios_knl_Clock_Object__DESC__C                                
c00c55c8  ti_sysbios_knl_Clock_Object__PARAMS__C                              
c0053540  ti_sysbios_knl_Clock_Params__init__S                                
c00537c0  ti_sysbios_knl_Clock_TimerProxy_Module__startupDone__S              
c0053560  ti_sysbios_knl_Clock_TimerProxy_getMaxTicks__E                      
c0045d60  ti_sysbios_knl_Clock_TimerProxy_startup__E                          
c004da80  ti_sysbios_knl_Clock_create                                         
c004db00  ti_sysbios_knl_Clock_doTick__I                                      
c0053580  ti_sysbios_knl_Clock_getTicks__E                                    
c0048420  ti_sysbios_knl_Clock_logTick__E                                     
c003fb40  ti_sysbios_knl_Clock_start__E                                       
c0027600  ti_sysbios_knl_Clock_workFunc__E                                    
c00c5b10  ti_sysbios_knl_Idle_funcList__A                                     
c00c59c4  ti_sysbios_knl_Idle_funcList__C                                     
c00535a0  ti_sysbios_knl_Idle_loop__E                                         
c004db80  ti_sysbios_knl_Idle_run__E                                          
c00535c0  ti_sysbios_knl_Queue_Instance_init__E                               
c00caa78  ti_sysbios_knl_Queue_Module__root__V                                
c00c56f0  ti_sysbios_knl_Queue_Object__DESC__C                                
c00c58b8  ti_sysbios_knl_Queue_Object__PARAMS__C                              
c00535e0  ti_sysbios_knl_Queue_Object__destruct__S                            
c0053600  ti_sysbios_knl_Queue_Object__get__S                                 
c0050640  ti_sysbios_knl_Queue_construct                                      
c0053620  ti_sysbios_knl_Queue_destruct                                       
c0053640  ti_sysbios_knl_Queue_empty__E                                       
c00c5b0c  ti_sysbios_knl_Semaphore_A_badContext__C                            
c00c5b14  ti_sysbios_knl_Semaphore_A_noEvents__C                              
c00c5b18  ti_sysbios_knl_Semaphore_A_overflow__C                              
c00c5b1c  ti_sysbios_knl_Semaphore_A_pendTaskDisabled__C                      
c00c5b20  ti_sysbios_knl_Semaphore_Instance_State_pendQ__O                    
c0053660  ti_sysbios_knl_Semaphore_Instance_finalize__E                       
c003cbc0  ti_sysbios_knl_Semaphore_Instance_init__E                           
c00c5b24  ti_sysbios_knl_Semaphore_LM_pend__C                                 
c00c5b28  ti_sysbios_knl_Semaphore_LM_post__C                                 
c00c5b2c  ti_sysbios_knl_Semaphore_Module__diagsEnabled__C                    
c00c5b30  ti_sysbios_knl_Semaphore_Module__diagsIncluded__C                   
c00c5b34  ti_sysbios_knl_Semaphore_Module__diagsMask__C                       
c00c5ca8  ti_sysbios_knl_Semaphore_Module__id__C                              
c00c5caa  ti_sysbios_knl_Semaphore_Module__loggerDefined__C                   
c00c5b38  ti_sysbios_knl_Semaphore_Module__loggerFxn2__C                      
c00c5b3c  ti_sysbios_knl_Semaphore_Module__loggerFxn4__C                      
c00c5b40  ti_sysbios_knl_Semaphore_Module__loggerObj__C                       
c00caa80  ti_sysbios_knl_Semaphore_Module__root__V                            
c00c5710  ti_sysbios_knl_Semaphore_Object__DESC__C                            
c00c55ec  ti_sysbios_knl_Semaphore_Object__PARAMS__C                          
c004dc00  ti_sysbios_knl_Semaphore_Object__create__S                          
c00506a0  ti_sysbios_knl_Semaphore_Object__delete__S                          
c0051f40  ti_sysbios_knl_Semaphore_Object__destruct__S                        
c0053680  ti_sysbios_knl_Semaphore_Params__init__S                            
c0050700  ti_sysbios_knl_Semaphore_construct                                  
c00536a0  ti_sysbios_knl_Semaphore_destruct                                   
c004dc80  ti_sysbios_knl_Semaphore_pendTimeout__I                             
c000d320  ti_sysbios_knl_Semaphore_pend__E                                    
c002d840  ti_sysbios_knl_Semaphore_post__E                                    
c00536c0  ti_sysbios_knl_Semaphore_reset__E                                   
c00c5b44  ti_sysbios_knl_Swi_LD_end__C                                        
c00c5b48  ti_sysbios_knl_Swi_LM_begin__C                                      
c00c5b4c  ti_sysbios_knl_Swi_LM_post__C                                       
c00ca1e8  ti_sysbios_knl_Swi_Module_State_0_readyQ__A                         
c00c5b50  ti_sysbios_knl_Swi_Module__diagsEnabled__C                          
c00c5b54  ti_sysbios_knl_Swi_Module__diagsIncluded__C                         
c00c5b58  ti_sysbios_knl_Swi_Module__diagsMask__C                             
c00c5cac  ti_sysbios_knl_Swi_Module__id__C                                    
c00c5cae  ti_sysbios_knl_Swi_Module__loggerDefined__C                         
c00c5b5c  ti_sysbios_knl_Swi_Module__loggerFxn1__C                            
c00c5b60  ti_sysbios_knl_Swi_Module__loggerFxn4__C                            
c00c5b64  ti_sysbios_knl_Swi_Module__loggerObj__C                             
c00ca8f8  ti_sysbios_knl_Swi_Module__state__V                                 
c0050760  ti_sysbios_knl_Swi_Module_startup__E                                
c00c5b68  ti_sysbios_knl_Swi_Object__count__C                                 
c0051f80  ti_sysbios_knl_Swi_Object__get__S                                   
c00ca788  ti_sysbios_knl_Swi_Object__table__V                                 
c00536e0  ti_sysbios_knl_Swi_disable__E                                       
c003a3a0  ti_sysbios_knl_Swi_post__E                                          
c00423e0  ti_sysbios_knl_Swi_restoreHwi__E                                    
c0022420  ti_sysbios_knl_Swi_runLoop__I                                       
c002efe0  ti_sysbios_knl_Swi_run__I                                           
c00484e0  ti_sysbios_knl_Swi_schedule__I                                      
c004dd00  ti_sysbios_knl_Swi_startup__E                                       
c00c5b6c  ti_sysbios_knl_Task_A_badPriority__C                                
c00c5b70  ti_sysbios_knl_Task_A_badTaskState__C                               
c00c5b74  ti_sysbios_knl_Task_A_badThreadType__C                              
c00c5b78  ti_sysbios_knl_Task_A_badTimeout__C                                 
c00c5b7c  ti_sysbios_knl_Task_A_noPendElem__C                                 
c00c5b80  ti_sysbios_knl_Task_A_sleepTaskDisabled__C                          
c00c5b84  ti_sysbios_knl_Task_E_spOutOfBounds__C                              
c00c5b88  ti_sysbios_knl_Task_E_stackOverflow__C                              
c00b9db8  ti_sysbios_knl_Task_Instance_State_0_hookEnv__A                     
c00c5cd0  ti_sysbios_knl_Task_Instance_State_0_stack__A                       
c00b9dc0  ti_sysbios_knl_Task_Instance_State_1_hookEnv__A                     
c00c70d0  ti_sysbios_knl_Task_Instance_State_1_stack__A                       
c00b9dc8  ti_sysbios_knl_Task_Instance_State_2_hookEnv__A                     
c00c90d0  ti_sysbios_knl_Task_Instance_State_2_stack__A                       
c0011a00  ti_sysbios_knl_Task_Instance_finalize__E                            
c001a420  ti_sysbios_knl_Task_Instance_init__E                                
c00c5b8c  ti_sysbios_knl_Task_LD_block__C                                     
c00c5b90  ti_sysbios_knl_Task_LD_exit__C                                      
c00c5b94  ti_sysbios_knl_Task_LD_ready__C                                     
c00c5b98  ti_sysbios_knl_Task_LM_setPri__C                                    
c00c5b9c  ti_sysbios_knl_Task_LM_sleep__C                                     
c00c5ba0  ti_sysbios_knl_Task_LM_switch__C                                    
c00caad0  ti_sysbios_knl_Task_Module_State_0_idleTask__A                      
c00ca268  ti_sysbios_knl_Task_Module_State_0_readyQ__A                        
c00c5ba4  ti_sysbios_knl_Task_Module_State_inactiveQ__O                       
c00c5ba8  ti_sysbios_knl_Task_Module__diagsEnabled__C                         
c00c5bac  ti_sysbios_knl_Task_Module__diagsIncluded__C                        
c00c5bb0  ti_sysbios_knl_Task_Module__diagsMask__C                            
c00c5cb0  ti_sysbios_knl_Task_Module__id__C                                   
c00c5cb2  ti_sysbios_knl_Task_Module__loggerDefined__C                        
c00c5bb4  ti_sysbios_knl_Task_Module__loggerFxn2__C                           
c00c5bb8  ti_sysbios_knl_Task_Module__loggerFxn4__C                           
c00c5bbc  ti_sysbios_knl_Task_Module__loggerObj__C                            
c00caa88  ti_sysbios_knl_Task_Module__root__V                                 
c00ca520  ti_sysbios_knl_Task_Module__state__V                                
c0017500  ti_sysbios_knl_Task_Module_startup__E                               
c00c5730  ti_sysbios_knl_Task_Object__DESC__C                                 
c00c519c  ti_sysbios_knl_Task_Object__PARAMS__C                               
c00c5bc0  ti_sysbios_knl_Task_Object__count__C                                
c00485a0  ti_sysbios_knl_Task_Object__create__S                               
c00507c0  ti_sysbios_knl_Task_Object__delete__S                               
c0051fc0  ti_sysbios_knl_Task_Object__get__S                                  
c00c5bc4  ti_sysbios_knl_Task_Object__heap__C                                 
c00c9eb0  ti_sysbios_knl_Task_Object__table__V                                
c0053700  ti_sysbios_knl_Task_Params__init__S                                 
c0053140  ti_sysbios_knl_Task_SupportProxy_Module__startupDone__S             
c0053160  ti_sysbios_knl_Task_SupportProxy_checkStack__E                      
c0053180  ti_sysbios_knl_Task_SupportProxy_getStackAlignment__E               
c0050340  ti_sysbios_knl_Task_SupportProxy_start__E                           
c004d180  ti_sysbios_knl_Task_SupportProxy_swap__E                            
c00c5bc8  ti_sysbios_knl_Task_allBlockedFunc__C                               
c004b8c0  ti_sysbios_knl_Task_allBlockedFunction__I                           
c003cd00  ti_sysbios_knl_Task_blockI__E                                       
c0033bc0  ti_sysbios_knl_Task_checkStacks__E                                  
c00c5bcc  ti_sysbios_knl_Task_defaultStackHeap__C                             
c00c5bd0  ti_sysbios_knl_Task_defaultStackSize__C                             
c0053720  ti_sysbios_knl_Task_disable__E                                      
c0050820  ti_sysbios_knl_Task_enter__I                                        
c0030860  ti_sysbios_knl_Task_exit__E                                         
c0053740  ti_sysbios_knl_Task_getHookContext__E                               
c00c58d0  ti_sysbios_knl_Task_hooks__A                                        
c00c59cc  ti_sysbios_knl_Task_hooks__C                                        
c00c5bd4  ti_sysbios_knl_Task_numConstructedTasks__C                          
c0030a60  ti_sysbios_knl_Task_postInit__I                                     
c004dd80  ti_sysbios_knl_Task_restore__E                                      
c002f200  ti_sysbios_knl_Task_schedule__I                                     
c0053760  ti_sysbios_knl_Task_self__E                                         
c0053780  ti_sysbios_knl_Task_setHookContext__E                               
c001a840  ti_sysbios_knl_Task_setPri__E                                       
c0052000  ti_sysbios_knl_Task_sleepTimeout__I                                 
c0018280  ti_sysbios_knl_Task_sleep__E                                        
c0030c60  ti_sysbios_knl_Task_startCore__E                                    
c00537a0  ti_sysbios_knl_Task_startup__E                                      
c0037b80  ti_sysbios_knl_Task_unblockI__E                                     
c00c5bd8  ti_sysbios_timers_timer64_Timer_A_notAvailable__C                   
c00c5bdc  ti_sysbios_timers_timer64_Timer_E_cannotSupport__C                  
c00ca3d0  ti_sysbios_timers_timer64_Timer_Module_State_0_device__A            
c00ca878  ti_sysbios_timers_timer64_Timer_Module_State_0_gctrl__A             
c00ca898  ti_sysbios_timers_timer64_Timer_Module_State_0_handles__A           
c00ca8b8  ti_sysbios_timers_timer64_Timer_Module_State_0_intFreqs__A          
c00c5be0  ti_sysbios_timers_timer64_Timer_Module__diagsEnabled__C             
c00c5be4  ti_sysbios_timers_timer64_Timer_Module__diagsIncluded__C            
c00c5be8  ti_sysbios_timers_timer64_Timer_Module__diagsMask__C                
c00c5cb4  ti_sysbios_timers_timer64_Timer_Module__id__C                       
c00537c0  ti_sysbios_timers_timer64_Timer_Module__startupDone__F              
c00537c0  ti_sysbios_timers_timer64_Timer_Module__startupDone__S              
c00ca990  ti_sysbios_timers_timer64_Timer_Module__state__V                    
c000e7e0  ti_sysbios_timers_timer64_Timer_Module_startup__E                   
c00ca480  ti_sysbios_timers_timer64_Timer_Object__table__V                    
c0051cc0  ti_sysbios_timers_timer64_Timer_TimerSupportProxy_enable__E         
c00c5bec  ti_sysbios_timers_timer64_Timer_anyMaskHigh__C                      
c00c5bf0  ti_sysbios_timers_timer64_Timer_anyMask__C                          
c0021140  ti_sysbios_timers_timer64_Timer_deviceConfig__I                     
c00c5bf4  ti_sysbios_timers_timer64_Timer_freqDivisor__C                      
c0033d80  ti_sysbios_timers_timer64_Timer_getFreq__E                          
c00537e0  ti_sysbios_timers_timer64_Timer_getMaxTicks__E                      
c00424e0  ti_sysbios_timers_timer64_Timer_initDevice__I                       
c00c363f  ti_sysbios_timers_timer64_Timer_localTimerBaseId__C                 
c00c5bf8  ti_sysbios_timers_timer64_Timer_numLocalTimers__C                   
c00c5bfc  ti_sysbios_timers_timer64_Timer_numTimerDevices__C                  
c002f420  ti_sysbios_timers_timer64_Timer_setPeriodMicroSecs__E               
c00364e0  ti_sysbios_timers_timer64_Timer_start__E                            
c00c5cb6  ti_sysbios_timers_timer64_Timer_startupNeeded__C                    
c0045d60  ti_sysbios_timers_timer64_Timer_startup__E                          
c004b960  ti_sysbios_timers_timer64_Timer_stop__E                             
c00c5cb8  ti_sysbios_timers_timer64_Timer_useTimer64pRegMap__C                
c00b9968  tpseudo                                                             
c00c9fa0  uartInitCfg                                                         
c00b9da8  uart_stdio                                                          
c00b9ce0  udp6_stats                                                          
c0053ba0  udps                                                                
c004de00  unlink                                                              
c0053bc4  upseudo                                                             
c00b9cb8  vlan_mcb                                                            
c0053800  vsprintf                                                            
c00508e0  write                                                               
c00c5c00  xdc_runtime_Assert_E_assertFailed__C                                
c004ba00  xdc_runtime_Assert_raise__I                                         
c00c5c04  xdc_runtime_Core_A_initializedParams__C                             
c00c5c08  xdc_runtime_Core_Module__diagsEnabled__C                            
c00c5c0c  xdc_runtime_Core_Module__diagsIncluded__C                           
c00c5c10  xdc_runtime_Core_Module__diagsMask__C                               
c00c5cba  xdc_runtime_Core_Module__id__C                                      
c004de80  xdc_runtime_Core_assignLabel__I                                     
c004df00  xdc_runtime_Core_assignParams__I                                    
c0037d00  xdc_runtime_Core_constructObject__I                                 
c002f640  xdc_runtime_Core_createObject__I                                    
c003fc60  xdc_runtime_Core_deleteObject__I                                    
c00c5c14  xdc_runtime_Error_E_memory__C                                       
c00c5c18  xdc_runtime_Error_Module__diagsEnabled__C                           
c00c5c1c  xdc_runtime_Error_Module__diagsIncluded__C                          
c00c5c20  xdc_runtime_Error_Module__diagsMask__C                              
c00c5cbc  xdc_runtime_Error_Module__loggerDefined__C                          
c00c5c24  xdc_runtime_Error_Module__loggerFxn8__C                             
c00c5c28  xdc_runtime_Error_Module__loggerObj__C                              
c00ca51e  xdc_runtime_Error_Module__state__V                                  
c0052040  xdc_runtime_Error_check__E                                          
c0053820  xdc_runtime_Error_getMsg__E                                         
c0053840  xdc_runtime_Error_getSite__E                                        
c0052080  xdc_runtime_Error_init__E                                           
c00c5cbe  xdc_runtime_Error_maxDepth__C                                       
c0032300  xdc_runtime_Error_policyDefault__E                                  
c00c5c2c  xdc_runtime_Error_policyFxn__C                                      
c00c5c30  xdc_runtime_Error_policy__C                                         
c0045e40  xdc_runtime_Error_print__E                                          
c00c5c34  xdc_runtime_Error_raiseHook__C                                      
c0053860  xdc_runtime_Error_raiseX__E                                         
c004baa0  xdc_runtime_Error_setX__E                                           
c0053880  xdc_runtime_Gate_enterSystem__E                                     
c00538a0  xdc_runtime_Gate_leaveSystem__E                                     
c00c5c38  xdc_runtime_IFilterLogger_Interface__BASE__C                        
c00c5c3c  xdc_runtime_IGateProvider_Interface__BASE__C                        
c00c5c40  xdc_runtime_IHeap_Interface__BASE__C                                
c00c5c44  xdc_runtime_ILogger_Interface__BASE__C                              
c00c5c48  xdc_runtime_IModule_Interface__BASE__C                              
c00c5c4c  xdc_runtime_Log_L_error__C                                          
c00c5c50  xdc_runtime_LoggerBuf_E_badLevel__C                                 
c00520c0  xdc_runtime_LoggerBuf_Handle__label__S                              
c00b84c8  xdc_runtime_LoggerBuf_Instance_State_0_entryArr__A                  
c0052100  xdc_runtime_LoggerBuf_Instance_finalize__E                          
c004df80  xdc_runtime_LoggerBuf_Instance_init__E                              
c0051d00  xdc_runtime_LoggerBuf_Module_GateProxy_Handle__label__S             
c0051d40  xdc_runtime_LoggerBuf_Module_GateProxy_Object__delete__S            
c0053900  xdc_runtime_LoggerBuf_Module_GateProxy_enter__E                     
c0053920  xdc_runtime_LoggerBuf_Module_GateProxy_leave__E                     
c0053380  xdc_runtime_LoggerBuf_Module_GateProxy_query__E                     
c00c51d8  xdc_runtime_LoggerBuf_Module__FXNS__C                               
c00c5c54  xdc_runtime_LoggerBuf_Module__gateObj__C                            
c00c5cc0  xdc_runtime_LoggerBuf_Module__id__C                                 
c00caa90  xdc_runtime_LoggerBuf_Module__root__V                               
c00caabe  xdc_runtime_LoggerBuf_Module__state__V                              
c004e000  xdc_runtime_LoggerBuf_Module_startup__E                             
c00c5750  xdc_runtime_LoggerBuf_Object__DESC__C                               
c00c54e8  xdc_runtime_LoggerBuf_Object__PARAMS__C                             
c00c5c58  xdc_runtime_LoggerBuf_Object__count__C                              
c004bb40  xdc_runtime_LoggerBuf_Object__create__S                             
c0050940  xdc_runtime_LoggerBuf_Object__delete__S                             
c0052140  xdc_runtime_LoggerBuf_Object__get__S                                
c00ca830  xdc_runtime_LoggerBuf_Object__table__V                              
c0053300  xdc_runtime_LoggerBuf_TimestampProxy_get64__E                       
c0053080  xdc_runtime_LoggerBuf_TimestampProxy_getFreq__E                     
c0053940  xdc_runtime_LoggerBuf_disable__E                                    
c0053960  xdc_runtime_LoggerBuf_enable__E                                     
c00c5cc2  xdc_runtime_LoggerBuf_filterByLevel__C                              
c004e080  xdc_runtime_LoggerBuf_filterOutEvent__I                             
c00426e0  xdc_runtime_LoggerBuf_getFilterLevel__E                             
c0052180  xdc_runtime_LoggerBuf_reset__E                                      
c003fd80  xdc_runtime_LoggerBuf_setFilterLevel__E                             
c00c5c5c  xdc_runtime_LoggerBuf_statusLogger__C                               
c00521c0  xdc_runtime_LoggerBuf_write0__E                                     
c0053980  xdc_runtime_LoggerBuf_write1__E                                     
c00539a0  xdc_runtime_LoggerBuf_write2__E                                     
c0033f40  xdc_runtime_LoggerBuf_write4__E                                     
c00296a0  xdc_runtime_LoggerBuf_write8__E                                     
c0051d00  xdc_runtime_Main_Module_GateProxy_Handle__label__S                  
c0051d40  xdc_runtime_Main_Module_GateProxy_Object__delete__S                 
c0053380  xdc_runtime_Main_Module_GateProxy_query__E                          
c00c5cc4  xdc_runtime_Main_Module__id__C                                      
c0051e80  xdc_runtime_Memory_HeapProxy_Handle__label__S                       
c0051ec0  xdc_runtime_Memory_HeapProxy_Object__delete__S                      
c00538c0  xdc_runtime_Memory_HeapProxy_alloc__E                               
c00538e0  xdc_runtime_Memory_HeapProxy_free__E                                
c00c5cc6  xdc_runtime_Memory_Module__id__C                                    
c00ca854  xdc_runtime_Memory_Module__state__V                                 
c0045f20  xdc_runtime_Memory_alloc__E                                         
c00539c0  xdc_runtime_Memory_calloc__E                                        
c00c5c60  xdc_runtime_Memory_defaultHeapInstance__C                           
c0052200  xdc_runtime_Memory_free__E                                          
c00539e0  xdc_runtime_Memory_getMaxDefaultTypeAlign__E                        
c00509a0  xdc_runtime_Memory_valloc__E                                        
c00caa98  xdc_runtime_Registry_Module__state__V                               
c0052240  xdc_runtime_Registry_findById__E                                    
c00caaa0  xdc_runtime_Startup_Module__state__V                                
00000001  xdc_runtime_Startup__EXECFXN__C                                     
00000001  xdc_runtime_Startup__RESETFXN__C                                    
c00c5c64  xdc_runtime_Startup_execImpl__C                                     
c00427e0  xdc_runtime_Startup_exec__E                                         
c0053a00  xdc_runtime_Startup_exec__I                                         
c00c59d8  xdc_runtime_Startup_firstFxns__A                                    
c00c59e0  xdc_runtime_Startup_firstFxns__C                                    
c00c59e8  xdc_runtime_Startup_lastFxns__C                                     
c00c5c68  xdc_runtime_Startup_maxPasses__C                                    
c0053a20  xdc_runtime_Startup_reset__I                                        
c0053a40  xdc_runtime_Startup_rtsDone__E                                      
c00c5820  xdc_runtime_Startup_sfxnRts__A                                      
c00c5c6c  xdc_runtime_Startup_sfxnRts__C                                      
c00c52c0  xdc_runtime_Startup_sfxnTab__A                                      
c00c5c70  xdc_runtime_Startup_sfxnTab__C                                      
c00324e0  xdc_runtime_Startup_startMods__I                                    
c0050a00  xdc_runtime_SysStd_abort__E                                         
c0053a60  xdc_runtime_SysStd_exit__E                                          
c0053a80  xdc_runtime_SysStd_putch__E                                         
c0053aa0  xdc_runtime_SysStd_ready__E                                         
c0051d00  xdc_runtime_System_Module_GateProxy_Handle__label__S                
c0051d40  xdc_runtime_System_Module_GateProxy_Object__delete__S               
c0053ac0  xdc_runtime_System_Module_GateProxy_enter__E                        
c0053ae0  xdc_runtime_System_Module_GateProxy_leave__E                        
c0053380  xdc_runtime_System_Module_GateProxy_query__E                        
c00ca8d8  xdc_runtime_System_Module_State_0_atexitHandlers__A                 
c00c5c74  xdc_runtime_System_Module__gateObj__C                               
c00caaa8  xdc_runtime_System_Module__state__V                                 
c0053b00  xdc_runtime_System_Module_startup__E                                
c0050a00  xdc_runtime_System_SupportProxy_abort__E                            
c0053a60  xdc_runtime_System_SupportProxy_exit__E                             
c0053a80  xdc_runtime_System_SupportProxy_putch__E                            
c0053aa0  xdc_runtime_System_SupportProxy_ready__E                            
c00c5c78  xdc_runtime_System_abortFxn__C                                      
c0052f00  xdc_runtime_System_abortStd__E                                      
c0052280  xdc_runtime_System_abort__E                                         
c00522c0  xdc_runtime_System_aprintf__E                                       
c0053b20  xdc_runtime_System_aprintf_va__E                                    
c0053b20  xdc_runtime_System_aprintf_va__F                                    
c004e100  xdc_runtime_System_atexit__E                                        
c0050a60  xdc_runtime_System_avprintf__E                                      
c0009460  xdc_runtime_System_doPrint__I                                       
c00c5c7c  xdc_runtime_System_exitFxn__C                                       
c0045580  xdc_runtime_System_exitStd__E                                       
c0052300  xdc_runtime_System_exit__E                                          
c00c5c80  xdc_runtime_System_extendFxn__C                                     
c00487e0  xdc_runtime_System_formatNum__I                                     
c00c5c84  xdc_runtime_System_maxAtexitHandlers__C                             
c002da80  xdc_runtime_System_printfExtend__I                                  
c0052340  xdc_runtime_System_printf__E                                        
c0053b40  xdc_runtime_System_printf_va__E                                     
c0053b40  xdc_runtime_System_printf_va__F                                     
c004e180  xdc_runtime_System_processAtExit__E                                 
c004e200  xdc_runtime_System_putchar__I                                       
c0050ac0  xdc_runtime_System_vprintf__E                                       
c0053b60  xdc_runtime_System_vsnprintf__E                                     
c00c5cc8  xdc_runtime_Text_charCnt__C                                         
c00c1dd0  xdc_runtime_Text_charTab__A                                         
c00c5c88  xdc_runtime_Text_charTab__C                                         
c0050b20  xdc_runtime_Text_cordText__E                                        
c00c5cca  xdc_runtime_Text_isLoaded__C                                        
c00c5c8c  xdc_runtime_Text_nameEmpty__C                                       
c00c5c90  xdc_runtime_Text_nameStatic__C                                      
c00c5c94  xdc_runtime_Text_nameUnknown__C                                     
c00c44a8  xdc_runtime_Text_nodeTab__A                                         
c00c5c98  xdc_runtime_Text_nodeTab__C                                         
c004e280  xdc_runtime_Text_printVisFxn__I                                     
c003fea0  xdc_runtime_Text_putLab__E                                          
c003ffc0  xdc_runtime_Text_putMod__E                                          
c0034100  xdc_runtime_Text_putSite__E                                         
c00c5ccc  xdc_runtime_Text_registryModsLastId__C                              
c0052380  xdc_runtime_Text_ropeText__E                                        
c00c5cce  xdc_runtime_Text_unnamedModsLastId__C                               
c0046000  xdc_runtime_Text_visitRope2__I                                      
c00c5c9c  xdc_runtime_Text_visitRopeFxn__C                                    
c0053b80  xdc_runtime_Text_visitRope__I                                       
c004bbe0  xdc_runtime_Text_xprintf__I                                         


GLOBAL SYMBOLS: SORTED BY Symbol Address 

address   name                                                                
-------   ----                                                                
00000000  _argsize                                                            
00000000  ti_sysbios_family_c64p_Cache_l2Size                                 
00000001  xdc_runtime_Startup__EXECFXN__C                                     
00000001  xdc_runtime_Startup__RESETFXN__C                                    
00001000  __TI_STACK_SIZE                                                     
00008000  ti_sysbios_family_c64p_Cache_l1dSize                                
00008000  ti_sysbios_family_c64p_Cache_l1pSize                                
c0000000  TcpInput                                                            
c0000000  __ASM__                                                             
c0000068  __ISA__                                                             
c0000080  __PLAT__                                                            
c00000a8  __TARG__                                                            
c00000d0  __TRDR__                                                            
c0001a00  TCP6Input                                                           
c00033a0  TcpOutput                                                           
c00045e0  TCP6Output                                                          
c0005760  IPRxPacket                                                          
c00062e0  UART_printf                                                         
c0007860  IPTxPacket                                                          
c0008220  lcpInput                                                            
c0008bc0  httpClientProcess                                                   
c0009460  xdc_runtime_System_doPrint__I                                       
c0009d00  EMAC_coreInit                                                       
c000a580  ipcpInput                                                           
c000b520  SockSet                                                             
c000bcc0  fdPoll                                                              
c000c460  ti_sysbios_family_c64p_Exception_handler__I                         
c000cbe0  MDIO_timerTick                                                      
c000d320  ti_sysbios_knl_Semaphore_pend__E                                    
c000da60  emac_init                                                           
c000e7e0  ti_sysbios_timers_timer64_Timer_Module_startup__E                   
c000eea0  EMAC_RxServiceCheck                                                 
c000f520  ICMPv6RecvRA                                                        
c0010200  ti_sysbios_heaps_HeapMem_allocUnprotected__E                        
c0010840  EMAC_coreDeInit                                                     
c0010e40  Rt6Create                                                           
c0011440  IPReasm                                                             
c0011a00  ti_sysbios_knl_Task_Instance_finalize__E                            
c0011fc0  ICMPInput                                                           
c0012560  ti_sysbios_heaps_HeapMem_freeUnprotected__E                         
c0012b00  EMAC_TxServiceCheck                                                 
c0013080  pppEvent                                                            
c0013600  IPv6IPAddressToString                                               
c0013b60  SockNew                                                             
c0014080  ti_sysbios_family_c64p_Cache_Module_startup__E                      
c0014580  EMAC_commonInit                                                     
c0014a60  LLIRxPacket                                                         
c0014f40  UdpInput                                                            
c0015900  Sock6Connect                                                        
c0015dc0  Sock6Set                                                            
c0016280  Bind6New                                                            
c0016720  Sock6Recv                                                           
c0016bc0  SockRecv                                                            
c0017060  main                                                                
c0017070  StackTest                                                           
c0017500  ti_sysbios_knl_Task_Module_startup__E                               
c0017e20  pppNew                                                              
c0018280  TaskSleep                                                           
c0018280  ti_sysbios_knl_Task_sleep__E                                        
c00186e0  Sock6New                                                            
c0018b20  fdSelect                                                            
c0019be0  chapInput                                                           
c001a420  ti_sysbios_knl_Task_Instance_init__E                                
c001a840  ti_sysbios_knl_Task_setPri__E                                       
c001ac60  Sock6Send                                                           
c001b060  efs_filecheck                                                       
c001b460  IPv6TxFragPacket                                                    
c001b840  fputs                                                               
c001bc20  EMAC_sendPacket                                                     
c001bfe0  IPv6TxPacket                                                        
c001c760  SockSend                                                            
c001cb20  TCP6TimeoutCheck                                                    
c001cee0  TcpTimeoutCheck                                                     
c001d660  _mmCheck                                                            
c001da20  NIMUIoctl                                                           
c001ddc0  RtCreate                                                            
c001e160  SBRead                                                              
c001e500  papInput                                                            
c001e8a0  ICMPv6RxPacket                                                      
c001ec20  IGMPInput                                                           
c001efa0  SockConnect                                                         
c001f320  dhcpPacketProcess                                                   
c001fa00  LLITxIpPacket                                                       
c001fd60  Sock6Notify                                                         
c00200c0  SockNotify                                                          
c0020780  ICMPv6SendParameterProblem                                          
c0020ac0  mmAlloc                                                             
c0020e00  pppoeSI                                                             
c0021140  ti_sysbios_timers_timer64_Timer_deviceConfig__I                     
c0021480  CfgAddEntry                                                         
c0021ac0  ICMPv6RecvRedirect                                                  
c0022420  ti_sysbios_knl_Swi_runLoop__I                                       
c0022740  ICMPv6RecvNS                                                        
c0022a40  ICMPv6SendDstUnreachable                                            
c0022d40  ICMPv6SendTimeExceeded                                              
c0023340  Sock6PcbBind                                                        
c0023640  Udp6Input                                                           
c0023940  inet_aton                                                           
c0023c40  Board_CorePLLConfig                                                 
c0024200  Rt6Find                                                             
c00247c0  UdpOutput                                                           
c0024aa0  pppInput                                                            
c0024d80  BindNew                                                             
c0025040  Board_DDRPLLConfig                                                  
c00255c0  RtFind                                                              
c0025880  SB6Read                                                             
c0025b40  Sock6PcbResolve                                                     
c0025e00  Udp6Output                                                          
c00260c0  ti_sysbios_heaps_HeapMem_Instance_init__E                           
c0026380  ti_sysbios_knl_Clock_Instance_init__E                               
c0026640  IPv6ParseExtnHeaders                                                
c00268e0  NodeAdd                                                             
c0026e20  SockClose                                                           
c00270c0  TCP6PrSetOption                                                     
c0027360  TcpPrSetOption                                                      
c0027600  ti_sysbios_knl_Clock_workFunc__E                                    
c00278a0  Board_moduleClockEnable                                             
c0027b20  DHCPOpen                                                            
c0028020  ICMPGenPacket                                                       
c00287a0  Rt6Free                                                             
c0028a20  SockPcbResolve                                                      
c0028ca0  SockRecvNC                                                          
c0028f20  TCP6GenPacket                                                       
c0029420  ti_sysbios_family_c64p_Hwi_reconfig__E                              
c00296a0  xdc_runtime_LoggerBuf_write8__E                                     
c0029920  Board_pinmuxConfig                                                  
c002a040  EMAC_setMulticast                                                   
c002a2a0  ICMPv6SendNA                                                        
c002a500  ICMPv6SendNS                                                        
c002a760  Interrupt_add                                                       
c002a9c0  LLI6TxIPPacket                                                      
c002ac20  NIMUReceivePacket                                                   
c002ae80  RawEthSockSet                                                       
c002b0e0  SB6Write                                                            
c002b340  SBWrite                                                             
c002b5a0  Sock6Close                                                          
c002b800  SockPcbBind                                                         
c002ba60  __c6xabi_divull                                                     
c002bcc0  httpParseRecv                                                       
c002c180  ti_sysbios_family_c64p_Cache_block__I                               
c002c3e0  ti_sysbios_family_c64p_Hwi_dispatchCore__I                          
c002c640  DaemonNew                                                           
c002c880  PipeRecv                                                            
c002cac0  RawInput                                                            
c002cf40  dhcpState                                                           
c002d180  dhcpVerifyMessage                                                   
c002d3c0  ti_sysbios_family_c64p_EventCombiner_dispatch__E                    
c002d600  ti_sysbios_family_c64p_Exception_internalHandler__I                 
c002d840  ti_sysbios_knl_Semaphore_post__E                                    
c002da80  xdc_runtime_System_printfExtend__I                                  
c002dee0  ICMPv6RecvNA                                                        
c002e320  IPv6RxPacket                                                        
c002e540  RawEthSockNew                                                       
c002e980  fputc                                                               
c002e980  putc                                                                
c002edc0  setvbuf                                                             
c002efe0  ti_sysbios_knl_Swi_run__I                                           
c002f200  ti_sysbios_knl_Task_schedule__I                                     
c002f420  ti_sysbios_timers_timer64_Timer_setPeriodMicroSecs__E               
c002f640  xdc_runtime_Core_createObject__I                                    
c002f860  Board_moduleClockSyncReset                                          
c002fa60  IPv6ParseFragHdr                                                    
c002fc60  LLI6New                                                             
c002fe60  RTCReport                                                           
c0030060  Raw6Output                                                          
c0030260  ti_sysbios_family_c64p_Hwi_dispatchAlways                           
c0030460  accept                                                              
c0030660  ti_sysbios_family_c64p_EventCombiner_dispatchPlug__E                
c0030860  ti_sysbios_knl_Task_exit__E                                         
c0030a60  ti_sysbios_knl_Task_postInit__I                                     
c0030c60  ti_sysbios_knl_Task_startCore__E                                    
c0031040  Rt6Modify                                                           
c0031400  TcpGenPacket                                                        
c00315e0  TcpTimeoutRexmt                                                     
c0031b80  dhcpSocketOpen                                                      
c0031f40  sendto                                                              
c0032120  ti_sysbios_gates_GateMutex_enter__E                                 
c0032300  xdc_runtime_Error_policyDefault__E                                  
c00324e0  xdc_runtime_Startup_startMods__I                                    
c00326c0  CfgExecute                                                          
c0032880  IPGetRoute                                                          
c0032c00  LLIGenArpPacket                                                     
c0032dc0  NC_NetStart                                                         
c0033140  _LLITimeoutCheck                                                    
c0033680  fdClose                                                             
c0033840  Osal_platformMalloc                                                 
c0033870  Osal_platformFree                                                   
c0033898  Osal_platformSpiCsEnter                                             
c00338a4  Osal_platformSpiCsExit                                              
c00338ac  Osal_beginMemAccess                                                 
c00338c4  Osal_endMemAccess                                                   
c00338e0  Osal_enterSingleCoreCriticalSection                                 
c0033920  Osal_exitSingleCoreCriticalSection                                  
c0033960  Osal_enterMultipleCoreCriticalSection                               
c0033970  Osal_exitMultipleCoreCriticalSection                                
c0033984  Osal_malloc                                                         
c0033990  Osal_free                                                           
c00339a8  Convert_CoreLocal2GlobalAddr                                        
c0033a00  recvncfrom                                                          
c0033bc0  ti_sysbios_knl_Task_checkStacks__E                                  
c0033d80  ti_sysbios_timers_timer64_Timer_getFreq__E                          
c0033f40  xdc_runtime_LoggerBuf_write4__E                                     
c0034100  xdc_runtime_Text_putSite__E                                         
c00342c0  Bind6Msg                                                            
c0034460  Board_DDR3Init                                                      
c0034600  CfgRemoveEntry                                                      
c0034940  HOSTrename                                                          
c0034c80  IPv6FragMsg                                                         
c0034fc0  NodeTreeFree                                                        
c0035160  Raw6Input                                                           
c00354a0  SockCreatePacket                                                    
c00357e0  TCP6TimeoutRexmt                                                    
c0035b20  dhcpBuildOptions                                                    
c0035cc0  emac_reset                                                          
c0035e60  getpeername                                                         
c00361a0  ti_sysbios_family_c64p_Cache_getL2InitSize__I                       
c0036340  ti_sysbios_heaps_HeapBuf_Module_startup__E                          
c00364e0  ti_sysbios_timers_timer64_Timer_start__E                            
c0036680  Bind6GetGlobalAddress                                               
c0036980  EMAC_setReceiveFilter                                               
c0036b00  IGMPMsg                                                             
c0036c80  NIMURegister                                                        
c0037400  bind                                                                
c0037580  dhcpBuildRequest                                                    
c0037700  llEnter                                                             
c0037a00  ti_sysbios_family_c64p_Exception_dispatch__E                        
c0037b80  ti_sysbios_knl_Task_unblockI__E                                     
c0037d00  xdc_runtime_Core_constructObject__I                                 
c0037e80  Board_init                                                          
c0037fe0  CfgGetEntry                                                         
c0038140  CfgGetNextEntry                                                     
c00382a0  DbgPrintf                                                           
c0038400  EMAC_close                                                          
c0038820  PBM_free                                                            
c0038980  PipeSend                                                            
c0038ae0  RawOutput                                                           
c0038da0  RtWalkNext                                                          
c0039060  Sock6Check                                                          
c00391c0  Sock6CreatePacket                                                   
c0039320  Sock6PcbConnect                                                     
c0039480  SockCheck                                                           
c00395e0  SockPcbConnect                                                      
c00398a0  TCP6TimeoutKeep                                                     
c0039a00  TcpTimeoutKeep                                                      
c0039b60  _mmInit                                                             
c0039cc0  authInit                                                            
c003a0e0  setsockopt                                                          
c003a240  telnetClientProcess                                                 
c003a3a0  ti_sysbios_knl_Swi_post__E                                          
c003a500  Bind6Free                                                           
c003a640  ExecOpen                                                            
c003a780  ICMPSendRtAdv                                                       
c003a8c0  IGMPJoin                                                            
c003aa00  IPv6DisplayIPAddress                                                
c003ac80  LLINew                                                              
c003adc0  NodeFind                                                            
c003af00  NodeWalk                                                            
c003b040  Osal_RegisterInterrupt                                              
c003b180  PBM_alloc                                                           
c003b400  SB6New                                                              
c003b680  Sock6Accept                                                         
c003b7c0  Sock6Listen                                                         
c003b900  SockAccept                                                          
c003ba40  SockListen                                                          
c003bb80  SockPcbCtlError                                                     
c003bcc0  __TI_closefile                                                      
c003be00  _auto_init_elf                                                      
c003c080  dhcpDecodeType                                                      
c003c1c0  fflush                                                              
c003c300  getdevice                                                           
c003c440  httpAuthenticationReq                                               
c003c580  mmCopy                                                              
c003c6c0  recv                                                                
c003c800  send                                                                
c003c940  ti_sysbios_family_c64p_Hwi_Instance_init__E                         
c003ca80  ti_sysbios_family_c64p_Hwi_Module_startup__E                        
c003cbc0  ti_sysbios_knl_Semaphore_Instance_init__E                           
c003cd00  ti_sysbios_knl_Task_blockI__E                                       
c003ce40  Bind6DADCheck                                                       
c003d080  BindFree                                                            
c003d1a0  CfgFree                                                             
c003d2c0  DaemonFree                                                          
c003d2c0  TelnetClose                                                         
c003d2c0  httpClose                                                           
c003d620  FdWaitEvent                                                         
c003d740  HwiP_create                                                         
c003d860  IGMPLeaveHostGroup                                                  
c003d980  IPMsg                                                               
c003dce0  IPv6Init                                                            
c003de00  IsICMPv6ErrorPkt                                                    
c003df20  MD5Update                                                           
c003e040  MLDJoinGroup                                                        
c003e160  NC_SystemOpen                                                       
c003e280  NIMUAddEthernetHeader                                               
c003e3a0  RawEthRxPacket                                                      
c003e4c0  RawEthTxPacket                                                      
c003e5e0  SBNew                                                               
c003e940  Sock6Shutdown                                                       
c003eb80  SockShutdown                                                        
c003eca0  TCP6PrAttach                                                        
c003edc0  TcpPrAttach                                                         
c003eee0  TelnetOpen                                                          
c003f000  _RtNodeInsert                                                       
c003f240  emac_int_service                                                    
c003f480  fdOpenSession                                                       
c003f5a0  fseek                                                               
c003f6c0  httpOpen                                                            
c003f7e0  httpSendStatusLine                                                  
c003f900  lcpReject                                                           
c003fa20  socket                                                              
c003fb40  ti_sysbios_knl_Clock_start__E                                       
c003fc60  xdc_runtime_Core_deleteObject__I                                    
c003fd80  xdc_runtime_LoggerBuf_setFilterLevel__E                             
c003fea0  xdc_runtime_Text_putLab__E                                          
c003ffc0  xdc_runtime_Text_putMod__E                                          
c00400e0  Board_configEmifPinMux                                              
c00402e0  Board_moduleClockInit                                               
c00403e0  CfgGetEntryCnt                                                      
c00404e0  CfgNew                                                              
c00405e0  CfgSetExecuteOrder                                                  
c00406e0  EventCombinerP_GroupRegisterInt                                     
c00408e0  IPv6GetSubnetMaskFromBits                                           
c0040ae0  MDIO_close                                                          
c0040be0  RTCMsg                                                              
c0040ce0  RawEthSockCheck                                                     
c0040de0  RtRedirect                                                          
c0040ee0  SemaphoreP_create                                                   
c0040fe0  Sock6Disconnect                                                     
c00410e0  SockValidateRoute                                                   
c00412e0  TCP6PrInherit                                                       
c00413e0  TCP6XmitTimer                                                       
c00414e0  TcpPrInherit                                                        
c00415e0  TcpXmitTimer                                                        
c00418e0  __TI_wrt_ok                                                         
c00419e0  atoi                                                                
c0041ce0  emac_reset_queue                                                    
c0041de0  lcpOpen                                                             
c0041ee0  listen                                                              
c0041fe0  mmFree                                                              
c00422e0  ti_sysbios_family_c64p_Hwi_Instance_finalize__E                     
c00423e0  ti_sysbios_knl_Swi_restoreHwi__E                                    
c00424e0  ti_sysbios_timers_timer64_Timer_initDevice__I                       
c00426e0  xdc_runtime_LoggerBuf_getFilterLevel__E                             
c00427e0  xdc_runtime_Startup_exec__E                                         
c00428e0  Bind6GetLinkLocalAddress                                            
c0042aa0  HOSTlseek                                                           
c0042b80  HOSTopen                                                            
c0042c60  HOSTwrite                                                           
c0042d40  IGMPLeave                                                           
c0042f00  LLI6Msg                                                             
c0042fe0  LLI6Update                                                          
c0043360  NodeDeRef                                                           
c0043520  NodeTreeNew                                                         
c0043600  PBMQ_enq                                                            
c00436e0  PBM_copy                                                            
c00437c0  PHYREG_waitResultsAck                                               
c00438a0  RawEthSockNotify                                                    
c0043980  RawEthSockPcbAttach                                                 
c0043a60  RawEthSockSend                                                      
c0043b40  Route6Msg                                                           
c0043c20  RtRemove                                                            
c0043d00  SBReadNC                                                            
c0043de0  SBSetMax                                                            
c0043ec0  Sock6IntAbort                                                       
c0043fa0  Sock6SpawnAbort                                                     
c0044080  Sock6ValidateRoute                                                  
c0044160  SockDisconnect                                                      
c0044240  SockSpawnAbort                                                      
c0044320  TCP6PrDetach                                                        
c0044400  TCP6PrDisconnect                                                    
c00444e0  TCP6TimeoutSackRexmt                                                
c00445c0  TCP6ValidateMetrics                                                 
c00446a0  TcpPrDetach                                                         
c0044780  TcpPrDisconnect                                                     
c0044860  TcpTimeoutSackRexmt                                                 
c0044940  TcpValidateMetrics                                                  
c0044da0  UdpChecksum                                                         
c0044e80  VLANDeinit                                                          
c0044f60  VLANReceivePacket                                                   
c0045120  _LLIExpListInsert                                                   
c0045200  _RtExpListInsert                                                    
c00452e0  _RtNodeRemove                                                       
c00453c0  close                                                               
c0045580  exit                                                                
c0045580  xdc_runtime_System_exitStd__E                                       
c0045660  fdint_lockfd                                                        
c0045740  fdint_unlockfd                                                      
c0045900  llExit                                                              
c00459e0  memset                                                              
c0045ac0  mmBulkAlloc                                                         
c0045ba0  pppFree                                                             
c0045c80  ti_sysbios_heaps_HeapMem_alloc__E                                   
c0045d60  ti_sysbios_knl_Clock_TimerProxy_startup__E                          
c0045d60  ti_sysbios_timers_timer64_Timer_startup__E                          
c0045e40  xdc_runtime_Error_print__E                                          
c0045f20  xdc_runtime_Memory_alloc__E                                         
c0046000  xdc_runtime_Text_visitRope2__I                                      
c00460e0  DHCPClose                                                           
c0046260  HOSTread                                                            
c0046320  HOSTunlink                                                          
c00464a0  IPv6Layer4ComputeChecksum                                           
c0046560  LLIGetValidTime                                                     
c0046620  LLIMsg                                                              
c00467a0  MLDLeaveGroup                                                       
c0046860  NIMUFindByName                                                      
c0046920  NS_BootTask                                                         
c0046aa0  NtIfIdx2Ip                                                          
c0046b60  PHYREG_waitResults                                                  
c0046c20  Rt6FindDefaultRouter                                                
c0046ce0  RtDeRef                                                             
c0046da0  RtWalkBegin                                                         
c0046e60  SB6Flush                                                            
c0046f20  SB6SetMax                                                           
c0046fe0  SBFlush                                                             
c00470a0  Sock6PcbResolveChain                                                
c0047160  Sock6PcbRtChange                                                    
c0047220  SockIntAbort                                                        
c00472e0  SockPcbRtChange                                                     
c00473a0  TCP6Close                                                           
c0047460  TaskGetEnv                                                          
c0047520  TcpChecksum                                                         
c00475e0  TcpClose                                                            
c0047a60  __TI_doflush                                                        
c0047b20  __c6xabi_divu                                                       
c0047b20  __divu                                                              
c0047be0  __c6xabi_remi                                                       
c0047be0  __remi                                                              
c0047ca0  dhcpOptionsClear                                                    
c0047d60  efs_fopen                                                           
c0047ee0  emacLinkUpProcessing                                                
c0047fa0  httpSendFullResponse                                                
c0048060  mmZeroInit                                                          
c00481e0  ti_sysbios_family_c64p_Hwi_Object__create__S                        
c00482a0  ti_sysbios_hal_Hwi_Object__create__S                                
c0048360  ti_sysbios_heaps_HeapMem_getStats__E                                
c0048420  ti_sysbios_knl_Clock_logTick__E                                     
c00484e0  ti_sysbios_knl_Swi_schedule__I                                      
c00485a0  ti_sysbios_knl_Task_Object__create__S                               
c0048660  __TI_tls_init                                                       
c0048720  dtask_udp_hello                                                     
c00487e0  xdc_runtime_System_formatNum__I                                     
c00489e0  CfgEntryDeRef                                                       
c0048a80  CfgEntryGetData                                                     
c0048b20  CfgGetImmediate                                                     
c0048ee0  FdSignalEvent                                                       
c0048f80  HOSTclose                                                           
c00490c0  IPReasmFree                                                         
c0049160  IPReasmTimeout                                                      
c0049200  IPv6CompareAddress                                                  
c00492a0  LLIValidateRoute                                                    
c0049340  MD5Final                                                            
c00493e0  MDIO_open                                                           
c0049480  NIMUShutdown                                                        
c0049520  NIMUUnregister                                                      
c00495c0  NtAddNetwork                                                        
c0049660  Osal_DeleteInterrupt                                                
c0049700  Osal_delay                                                          
c00497a0  PBM_open                                                            
c0049840  PHYREG_wait                                                         
c00498e0  PipeCheck                                                           
c0049980  RouteMsg                                                            
c0049ac0  SB6Free                                                             
c0049b60  SBFree                                                              
c0049c00  SemCreate                                                           
c0049ca0  Sock6CleanPcb                                                       
c0049d40  Sock6GetName                                                        
c0049de0  SockBind                                                            
c0049e80  SockCleanPcb                                                        
c0049f20  TCP6Drop                                                            
c0049fc0  TCP6PrCtlError                                                      
c004a060  TCP6PrSend                                                          
c004a100  TCP6PrSendOOB                                                       
c004a240  TaskCreate                                                          
c004a2e0  TcpDrop                                                             
c004a380  TcpPrCtlError                                                       
c004a420  TcpPrSend                                                           
c004a4c0  TcpPrSendOOB                                                        
c004a560  TimerNew                                                            
c004a600  UART_init                                                           
c004a6a0  UART_stdioInit                                                      
c004a880  _LLITimeoutFlush                                                    
c004a920  __TI_cleanup                                                        
c004a9c0  __c6xabi_remu                                                       
c004a9c0  __remu                                                              
c004aa60  _c_int00                                                            
c004ab00  ti_sysbios_family_c64p_Hwi_plug__E                                  
c004aba0  authStart                                                           
c004ac40  dhcpBuildDecline                                                    
c004ad80  emac_config                                                         
c004ae20  emac_open                                                           
c004aec0  emac_poll                                                           
c004af60  emac_send                                                           
c004b000  fdCloseSession                                                      
c004b0a0  lcpInit                                                             
c004b1e0  llTimerTick                                                         
c004b280  memcpy                                                              
c004b320  mmBulkFree                                                          
c004b460  stricmp                                                             
c004b500  strstr                                                              
c004b5a0  ti_sysbios_family_c64p_Exception_Module_startup__E                  
c004b640  ti_sysbios_family_c64p_Hwi_construct                                
c004b6e0  ti_sysbios_family_c64p_Hwi_dispatchC__I                             
c004b780  ti_sysbios_family_c64p_Hwi_getStackInfo__E                          
c004b780  ti_sysbios_hal_Hwi_HwiProxy_getStackInfo__E                         
c004b820  ti_sysbios_heaps_HeapMem_init__I                                    
c004b8c0  ti_sysbios_knl_Task_allBlockedFunction__I                           
c004b960  ti_sysbios_timers_timer64_Timer_stop__E                             
c004ba00  xdc_runtime_Assert_raise__I                                         
c004baa0  xdc_runtime_Error_setX__E                                           
c004bb40  xdc_runtime_LoggerBuf_Object__create__S                             
c004bbe0  xdc_runtime_Text_xprintf__I                                         
c004bd80  EMAC_getStatistics                                                  
c004bf00  EventCombinerP_getHwi                                               
c004bf80  ICMPChecksum                                                        
c004c080  ICMPv6RecvRS                                                        
c004c180  IPv6GetRoute                                                        
c004c200  LLI6Free                                                            
c004c300  NC_SystemClose                                                      
c004c380  NIMUInit                                                            
c004c400  PBMQ_deq                                                            
c004c500  PipeClose                                                           
c004c580  RawEthSockClose                                                     
c004c600  RawEthSockPcbDetach                                                 
c004c680  Rt6Update                                                           
c004c700  RtSetFailure                                                        
c004c780  RtSetTimeout                                                        
c004c800  Sock6Bind                                                           
c004c880  Sock6PcbCleanup                                                     
c004c900  SockGetName                                                         
c004c980  SockPcbCleanup                                                      
c004ca00  SockPcbDetach                                                       
c004ca80  SockPcbResolveChain                                                 
c004cb00  TCP6PrListen                                                        
c004cb80  TaskSetEnv                                                          
c004cc00  TcpPrListen                                                         
c004cc80  TimerHSTick                                                         
c004cd80  UART_charPut_v0                                                     
c004cf00  _LLIExpListRemove                                                   
c004d000  _RtExpListRemove                                                    
c004d080  __TI_readmsg                                                        
c004d100  __c6xabi_llshl                                                      
c004d180  ti_sysbios_family_c62_TaskSupport_swap__E                           
c004d180  ti_sysbios_knl_Task_SupportProxy_swap__E                            
c004d200  efs_fclose                                                          
c004d280  efs_filesend                                                        
c004d380  fdint_waitevent                                                     
c004d400  finddevice                                                          
c004d480  httpSendEntityLength                                                
c004d500  httpSendErrorResponse                                               
c004d580  llTimerGetTime                                                      
c004d680  ti_sysbios_BIOS_atExitFunc__I                                       
c004d700  ti_sysbios_BIOS_registerRTSLock__I                                  
c004d780  ti_sysbios_family_c64p_Cache_invL1pAll__E                           
c004d800  ti_sysbios_gates_GateHwi_Object__create__S                          
c004d880  ti_sysbios_gates_GateMutex_Object__create__S                        
c004d900  ti_sysbios_hal_Hwi_checkStack                                       
c004d980  ti_sysbios_hal_Hwi_initStack                                        
c004da00  ti_sysbios_heaps_HeapMem_Object__create__S                          
c004da80  ti_sysbios_knl_Clock_create                                         
c004db00  ti_sysbios_knl_Clock_doTick__I                                      
c004db80  ti_sysbios_knl_Idle_run__E                                          
c004dc00  ti_sysbios_knl_Semaphore_Object__create__S                          
c004dc80  ti_sysbios_knl_Semaphore_pendTimeout__I                             
c004dd00  ti_sysbios_knl_Swi_startup__E                                       
c004dd80  ti_sysbios_knl_Task_restore__E                                      
c004de00  remove                                                              
c004de00  unlink                                                              
c004de80  xdc_runtime_Core_assignLabel__I                                     
c004df00  xdc_runtime_Core_assignParams__I                                    
c004df80  xdc_runtime_LoggerBuf_Instance_init__E                              
c004e000  xdc_runtime_LoggerBuf_Module_startup__E                             
c004e080  xdc_runtime_LoggerBuf_filterOutEvent__I                             
c004e100  xdc_runtime_System_atexit__E                                        
c004e180  xdc_runtime_System_processAtExit__E                                 
c004e200  xdc_runtime_System_putchar__I                                       
c004e280  xdc_runtime_Text_printVisFxn__I                                     
c004e300  Bind6FindByIF                                                       
c004e360  Bind6IF2IPHost                                                      
c004e3c0  BindFindByHost                                                      
c004e420  BindFindByIF                                                        
c004e480  BindFindByNet                                                       
c004e4e0  BindGetIFByDBCast                                                   
c004e540  BindIF2IPHost                                                       
c004e5a0  CfgEntryInfo                                                        
c004e600  CfgSetService                                                       
c004e720  HwiP_delete                                                         
c004e780  IGMPTestGroup                                                       
c004e7e0  IPChecksum                                                          
c004e840  LLIFree                                                             
c004e8a0  NIMUAddHeader                                                       
c004e900  NIMUCreatePacket                                                    
c004e960  NIMUFindByIndex                                                     
c004e9c0  NIMUPacketService                                                   
c004ea20  NIMUPacketServiceCheck                                              
c004ea80  NIMUSendPacket                                                      
c004eae0  NS_PreBoot                                                          
c004eb40  Osal_getThreadType                                                  
c004eba0  RTCAddHook                                                          
c004ec00  RTCRemoveHook                                                       
c004ec60  RawEthSockPcbCleanup                                                
c004ecc0  RawEthSockPcbFind                                                   
c004ed20  Rt6GetNetworkAddr                                                   
c004ed80  RtWalkEnd                                                           
c004ede0  SemaphoreP_delete                                                   
c004eea0  Sock6PcbDetach                                                      
c004ef00  Sock6PrCtlError                                                     
c004ef60  Sock6PrDetach                                                       
c004efc0  SockPrCtlError                                                      
c004f020  SockPrDetach                                                        
c004f080  TCP6PrConnect                                                       
c004f0e0  TCP6SetPersist                                                      
c004f140  TCP6TimeoutPersist                                                  
c004f1a0  TaskDestroy                                                         
c004f200  TcpPrConnect                                                        
c004f260  TcpSetPersist                                                       
c004f2c0  TcpTimeoutPersist                                                   
c004f320  UART_divisorLatchWrite_v0                                           
c004f380  UART_fifoWait_v0                                                    
c004f440  UART_lineCharacConfig_v0                                            
c004f620  VLANInit                                                            
c004f6e0  __TI_writemsg                                                       
c004f738  C$$IO$$                                                             
c004f740  __c6xabi_llshru                                                     
c004f7a0  _subcull                                                            
c004f800  ti_sysbios_family_c64p_Hwi_switchAndDispatch__I                     
c004f860  ti_sysbios_family_xxx_Hwi_switchAndRunFunc                          
c004f8c0  dhcpBuildDiscover                                                   
c004f920  dhcpPacketReceive                                                   
c004f980  dhcpPacketSend                                                      
c004f9e0  dhcpSocketClose                                                     
c004fa40  emac_close                                                          
c004fb00  fdint_clearevent                                                    
c004fb60  fdint_getfdt                                                        
c004fbc0  fdint_setevent                                                      
c004fc20  fdsetTestEntry                                                      
c004fc80  httpSendClientStr                                                   
c004fce0  ipcpInit                                                            
c004fd40  ipcpStart                                                           
c004fda0  lcpClose                                                            
c004fe00  list_cat                                                            
c004fe60  list_remove_node                                                    
c004fec0  lseek                                                               
c004ff20  malloc                                                              
c004ffe0  pppoeInput                                                          
c0050040  printf                                                              
c00500a0  recvncfree                                                          
c0050160  strcpy                                                              
c00501c0  ti_ndk_config_Global_stackThread                                    
c0050220  ti_sysbios_BIOS_errorRaiseHook__I                                   
c0050280  ti_sysbios_BIOS_removeRTSLock__I                                    
c00502e0  ti_sysbios_BIOS_startFunc__I                                        
c0050340  ti_sysbios_family_c62_TaskSupport_start__E                          
c0050340  ti_sysbios_knl_Task_SupportProxy_start__E                           
c00503a0  ti_sysbios_family_c64p_Cache_setMar__E                              
c0050400  ti_sysbios_family_c64p_EventCombiner_unused__E                      
c0050460  ti_sysbios_family_c64p_Hwi_Object__delete__S                        
c0050460  ti_sysbios_hal_Hwi_HwiProxy_Object__delete__S                       
c00504c0  ti_sysbios_BIOS_RtsGateProxy_Object__delete__S                      
c00504c0  ti_sysbios_gates_GateMutex_Object__delete__S                        
c00504c0  ti_sysbios_heaps_HeapMem_Module_GateProxy_Object__delete__S         
c0050520  ti_sysbios_hal_Hwi_Instance_init__E                                 
c0050580  ti_sysbios_heaps_HeapMem_free__E                                    
c00505e0  ti_sysbios_knl_Clock_Module_startup__E                              
c0050640  ti_sysbios_knl_Queue_construct                                      
c00506a0  ti_sysbios_knl_Semaphore_Object__delete__S                          
c0050700  ti_sysbios_knl_Semaphore_construct                                  
c0050760  ti_sysbios_knl_Swi_Module_startup__E                                
c00507c0  ti_sysbios_knl_Task_Object__delete__S                               
c0050820  ti_sysbios_knl_Task_enter__I                                        
c0050880  UART_putc                                                           
c00508e0  write                                                               
c0050940  xdc_runtime_LoggerBuf_Object__delete__S                             
c00509a0  xdc_runtime_Memory_valloc__E                                        
c0050a00  xdc_runtime_SysStd_abort__E                                         
c0050a00  xdc_runtime_System_SupportProxy_abort__E                            
c0050a60  xdc_runtime_System_avprintf__E                                      
c0050ac0  xdc_runtime_System_vprintf__E                                       
c0050b20  xdc_runtime_Text_cordText__E                                        
c0050b80  Bind6FindByHost                                                     
c0050bc0  Bind6FindByNet                                                      
c0050c00  BindGetIP                                                           
c0050c80  ExecClose                                                           
c0050cc0  ExecTimer                                                           
c0050d00  IPv6IsLinkLocal                                                     
c0050d40  IPv6IsMulticast                                                     
c0050d80  LLI6IsValid                                                         
c0050dc0  MD5Init                                                             
c0050e00  MLDTestGroup                                                        
c0050e40  MuxIntcP_create                                                     
c0050e80  NC_BootComplete                                                     
c0050ec0  NDK_hookCreate                                                      
c0050f00  NtRemoveNetwork                                                     
c0050f40  Osal_RegisterInterrupt_initParams                                   
c0050f80  Osal_getHwAttrs                                                     
c0050fc0  PHYREG_read                                                         
c0051080  Rt6IsDefaultRoute                                                   
c00510c0  SemaphoreP_Params_init                                              
c0051100  SemaphoreP_pend                                                     
c0051140  SemaphoreP_post                                                     
c0051140  SemaphoreP_postFromClock                                            
c0051140  SemaphoreP_postFromISR                                              
c0051180  Sock6PcbAttach                                                      
c00511c0  Sock6SetOOBMark                                                     
c0051200  SockPcbAttach                                                       
c0051240  SockSetOOBMark                                                      
c0051280  TCP6TimeoutRemove                                                   
c00512c0  TCP6TimeoutWait2                                                    
c0051300  TcpTimeoutRemove                                                    
c0051340  TcpTimeoutWait2                                                     
c0051380  UART_breakCtl_v0                                                    
c00513c0  UART_charGetNonBlocking_v0                                          
c0051400  UART_divisorValCompute_v0                                           
c0051440  UART_fIFOConfig_v0                                                  
c0051480  UART_fIFORegisterWrite_v0                                           
c00514c0  UART_intDisable_v0                                                  
c0051500  UART_intEnable_v0                                                   
c0051540  UART_intIdentityGet_v0                                              
c0051580  UART_loopbackModeControl_v0                                         
c00515c0  UART_open                                                           
c0051600  UART_readLineStatus_v0                                              
c0051640  _DebugP_assert                                                      
c0051680  __c6xabi_strasgi_64plus                                             
c0051680  __strasgi_64plus                                                    
c00516c0  _args_main                                                          
c0051700  _llTimerInit                                                        
c0051740  ti_sysbios_family_c62_TaskSupport_buildTaskStack                    
c0051780  efs_loadfunction                                                    
c0051800  fdSelectAbort                                                       
c0051840  fdint_freefdt                                                       
c0051880  free                                                                
c00518c0  inet_addr                                                           
c0051900  list_add                                                            
c0051940  list_remove                                                         
c0051980  puts                                                                
c00519c0  sprintf                                                             
c0051a00  strlen                                                              
c0051a40  ti_sysbios_BIOS_exitFunc__I                                         
c0051a80  ti_sysbios_BIOS_rtsLock__I                                          
c0051ac0  ti_sysbios_BIOS_rtsUnlock__I                                        
c0051b00  ti_sysbios_family_c64p_EventCombiner_Module_startup__E              
c0051b40  ti_sysbios_family_c64p_EventCombiner_disableEvent__E                
c0051b80  ti_sysbios_family_c64p_EventCombiner_enableEvent__E                 
c0051bc0  ti_sysbios_family_c64p_Hwi_Object__destruct__S                      
c0051c00  ti_sysbios_family_c64p_Hwi_disableInterrupt__E                      
c0051c00  ti_sysbios_hal_Hwi_HwiProxy_disableInterrupt__E                     
c0051c40  ti_sysbios_family_c64p_Hwi_enableInterrupt__E                       
c0051c40  ti_sysbios_hal_Hwi_HwiProxy_enableInterrupt__E                      
c0051c80  ti_sysbios_family_c64p_Hwi_getEventId__E                            
c0051cc0  ti_sysbios_family_c64p_primus_TimerSupport_enable__E                
c0051cc0  ti_sysbios_timers_timer64_Timer_TimerSupportProxy_enable__E         
c0051d00  ti_sysbios_gates_GateHwi_Handle__label__S                           
c0051d00  xdc_runtime_LoggerBuf_Module_GateProxy_Handle__label__S             
c0051d00  xdc_runtime_Main_Module_GateProxy_Handle__label__S                  
c0051d00  xdc_runtime_System_Module_GateProxy_Handle__label__S                
c0051d40  ti_sysbios_gates_GateHwi_Object__delete__S                          
c0051d40  xdc_runtime_LoggerBuf_Module_GateProxy_Object__delete__S            
c0051d40  xdc_runtime_Main_Module_GateProxy_Object__delete__S                 
c0051d40  xdc_runtime_System_Module_GateProxy_Object__delete__S               
c0051d80  ti_sysbios_BIOS_RtsGateProxy_Handle__label__S                       
c0051d80  ti_sysbios_gates_GateMutex_Handle__label__S                         
c0051d80  ti_sysbios_heaps_HeapMem_Module_GateProxy_Handle__label__S          
c0051dc0  ti_sysbios_gates_GateMutex_Instance_init__E                         
c0051e00  ti_sysbios_gates_GateMutex_leave__E                                 
c0051e40  ti_sysbios_hal_Hwi_HwiProxy_create                                  
c0051e80  ti_sysbios_heaps_HeapMem_Handle__label__S                           
c0051e80  xdc_runtime_Memory_HeapProxy_Handle__label__S                       
c0051ec0  ti_sysbios_heaps_HeapMem_Object__delete__S                          
c0051ec0  xdc_runtime_Memory_HeapProxy_Object__delete__S                      
c0051f00  ti_sysbios_heaps_HeapMem_Object__get__S                             
c0051f40  ti_sysbios_knl_Semaphore_Object__destruct__S                        
c0051f80  ti_sysbios_knl_Swi_Object__get__S                                   
c0051fc0  ti_sysbios_knl_Task_Object__get__S                                  
c0052000  ti_sysbios_knl_Task_sleepTimeout__I                                 
c0052040  xdc_runtime_Error_check__E                                          
c0052080  xdc_runtime_Error_init__E                                           
c00520c0  xdc_runtime_LoggerBuf_Handle__label__S                              
c0052100  xdc_runtime_LoggerBuf_Instance_finalize__E                          
c0052140  xdc_runtime_LoggerBuf_Object__get__S                                
c0052180  xdc_runtime_LoggerBuf_reset__E                                      
c00521c0  xdc_runtime_LoggerBuf_write0__E                                     
c0052200  xdc_runtime_Memory_free__E                                          
c0052240  xdc_runtime_Registry_findById__E                                    
c0052280  xdc_runtime_System_abort__E                                         
c00522c0  xdc_runtime_System_aprintf__E                                       
c0052300  xdc_runtime_System_exit__E                                          
c0052340  xdc_runtime_System_printf__E                                        
c0052380  xdc_runtime_Text_ropeText__E                                        
c00523c0  Bind6GetInterfaceHandle                                             
c00523e0  Bind6GetLifetime                                                    
c0052400  Bind6SetLifetime                                                    
c0052420  BindGetFirst                                                        
c0052440  BindGetIF                                                           
c0052460  BindGetNext                                                         
c0052480  BindIFNet2IPHost                                                    
c00524a0  BindIPHost2IF                                                       
c00524c0  Board_PLLInit                                                       
c00524e0  Board_uartStdioInit                                                 
c0052500  CfgSetDefault                                                       
c00525a0  EventCombinerP_disableEvent                                         
c00525c0  EventCombinerP_dispatchPlug                                         
c00525e0  EventCombinerP_enableEvent                                          
c0052600  ExecHRef                                                            
c0052620  ExecLowResource                                                     
c0052640  HwiP_disable                                                        
c0052660  HwiP_restore                                                        
c0052680  IPRtChange                                                          
c00526a0  LED_TOGGLE                                                          
c00526c0  LLI6GetNetDevice                                                    
c00526e0  LLI6IncRefCount                                                     
c0052700  LLI6IsDead                                                          
c0052720  LLI6IsRouter                                                        
c0052740  LLI6SetIncomplete                                                   
c0052760  LoggerBuf_instanceStartup                                           
c0052780  MDIO_getStatus                                                      
c00527a0  MDIO_initPHY                                                        
c00527c0  NC_IPUpdate                                                         
c00527e0  NC_NetStop                                                          
c0052800  NDK_hookInit                                                        
c0052820  NIMUGetRsvdSizeInfo                                                 
c0052840  NIMUSetRsvdSizeInfo                                                 
c0052860  NatMsg                                                              
c0052880  NodeGetRt                                                           
c00528a0  NodeSetRt                                                           
c00528c0  NotifyLowResource                                                   
c00528e0  OEMCacheClean                                                       
c0052900  PBM_close                                                           
c0052920  RawEthSockPcbInit                                                   
c0052940  RawEthSockPrAttach                                                  
c0052960  RawEthSockPrDetach                                                  
c0052980  Rt6GetIF                                                            
c00529a0  Rt6GetLLI                                                           
c00529c0  Rt6GetMTU                                                           
c00529e0  Rt6IncRefCount                                                      
c0052a00  Rt6IsLocalRoute                                                     
c0052a20  SemDelete                                                           
c0052a40  SemPend                                                             
c0052a60  SemPost                                                             
c0052a80  SemReset                                                            
c0052aa0  Sock6PrAttach                                                       
c0052ac0  Sock6SetOOBData                                                     
c0052ae0  SockPrAttach                                                        
c0052b00  SockSetOOBData                                                      
c0052b20  TCP6PrRecv                                                          
c0052b40  TCP6TimeoutAdd                                                      
c0052b60  TaskBlock                                                           
c0052b80  TaskExit                                                            
c0052ba0  TaskSelf                                                            
c0052bc0  TaskSetPri                                                          
c0052be0  TcpPrRecv                                                           
c0052c00  TcpTimeoutAdd                                                       
c0052c20  TimerFree                                                           
c0052c40  UART_Params_init                                                    
c0052c80  UART_divisorLatchDisable_v0                                         
c0052ca0  UART_fIFOCharPut_v0                                                 
c0052cc0  UART_fifoEmpty_v0                                                   
c0052d00  UART_operatingModeSelect_v0                                         
c0052d20  UART_pwremuConfig_v0                                                
c0052d40  UART_write                                                          
c0052d60  UART_writePolling                                                   
c0052d80  _TaskInit                                                           
c0052da0  _TaskShutdown                                                       
c0052dc0  _llSerialInit                                                       
c0052de0  _llSerialServiceCheck                                               
c0052e00  _llSerialShutdown                                                   
c0052e20  _llTimerShutdown                                                    
c0052e40  _llUserLedInit                                                      
c0052e60  _llUserLedShutdown                                                  
c0052e80  _nop                                                                
c0052ea0  _register_lock                                                      
c0052ec0  _register_unlock                                                    
c0052ee0  ti_sysbios_family_c62_TaskSupport_glue                              
c0052f00  C$$EXIT                                                             
c0052f00  abort                                                               
c0052f00  xdc_runtime_System_abortStd__E                                      
c0052f20  __TI_decompress_none                                                
c0052f40  __TI_decompress_rle24                                               
c0052f60  efs_getfilesize                                                     
c0052f80  fdint_signaltimeout                                                 
c0052fa0  list_get_head                                                       
c0052fc0  list_get_next                                                       
c0052fe0  llSerialService                                                     
c0053000  llTimerGetStartTime                                                 
c0053020  putchar                                                             
c0053040  ti_sysbios_BIOS_RtsGateProxy_enter__E                               
c0053060  ti_sysbios_BIOS_RtsGateProxy_leave__E                               
c0053080  ti_sysbios_BIOS_getCpuFreq__E                                       
c0053080  ti_sysbios_family_c64p_TimestampProvider_getFreq__E                 
c0053080  xdc_runtime_LoggerBuf_TimestampProxy_getFreq__E                     
c00530a0  ti_sysbios_BIOS_getThreadType__E                                    
c00530c0  ti_sysbios_BIOS_linkedWithIncorrectBootLibrary__E                   
c00530e0  ti_sysbios_BIOS_nullFunc__I                                         
c0053100  ti_sysbios_BIOS_setThreadType__E                                    
c0053120  ti_sysbios_BIOS_start__E                                            
c0053140  ti_sysbios_family_c62_TaskSupport_Module__startupDone__S            
c0053140  ti_sysbios_knl_Task_SupportProxy_Module__startupDone__S             
c0053160  ti_sysbios_family_c62_TaskSupport_checkStack__E                     
c0053160  ti_sysbios_knl_Task_SupportProxy_checkStack__E                      
c0053180  ti_sysbios_family_c62_TaskSupport_getStackAlignment__E              
c0053180  ti_sysbios_knl_Task_SupportProxy_getStackAlignment__E               
c00531a0  ti_sysbios_family_c64p_Cache_wbInv__E                               
c00531a0  ti_sysbios_hal_Cache_CacheProxy_wbInv__E                            
c00531c0  ti_sysbios_family_c64p_Hwi_Module__startupDone__F                   
c00531c0  ti_sysbios_family_c64p_Hwi_Module__startupDone__S                   
c00531c0  ti_sysbios_hal_Hwi_HwiProxy_Module__startupDone__S                  
c00531e0  ti_sysbios_family_c64p_Hwi_Params__init__S                          
c00531e0  ti_sysbios_hal_Hwi_HwiProxy_Params__init__S                         
c0053200  ti_sysbios_family_c64p_Hwi_clearInterrupt__E                        
c0053200  ti_sysbios_hal_Hwi_HwiProxy_clearInterrupt__E                       
c0053220  ti_sysbios_family_c64p_Hwi_destruct                                 
c0053240  ti_sysbios_family_c64p_Hwi_getFunc__E                               
c0053260  ti_sysbios_family_c64p_Hwi_getHandle__E                             
c0053280  ti_sysbios_family_c64p_Hwi_startup__E                               
c0053280  ti_sysbios_hal_Hwi_HwiProxy_startup__E                              
c00532a0  ti_sysbios_family_c64p_Hwi_switchFromBootStack__E                   
c00532a0  ti_sysbios_hal_Hwi_HwiProxy_switchFromBootStack__E                  
c00532c0  ti_sysbios_family_c64p_Hwi_unPluggedInterrupt__I                    
c00532e0  ti_sysbios_family_c64p_TimestampProvider_Module_startup__E          
c0053300  ti_sysbios_family_c64p_TimestampProvider_get64__E                   
c0053300  xdc_runtime_LoggerBuf_TimestampProxy_get64__E                       
c0053320  ti_sysbios_gates_GateHwi_Instance_init__E                           
c0053340  ti_sysbios_gates_GateHwi_enter__E                                   
c0053360  ti_sysbios_gates_GateHwi_leave__E                                   
c0053380  ti_sysbios_gates_GateHwi_query__E                                   
c0053380  xdc_runtime_LoggerBuf_Module_GateProxy_query__E                     
c0053380  xdc_runtime_Main_Module_GateProxy_query__E                          
c0053380  xdc_runtime_System_Module_GateProxy_query__E                        
c00533a0  ti_sysbios_gates_GateMutex_Instance_finalize__E                     
c00533c0  ti_sysbios_BIOS_RtsGateProxy_query__E                               
c00533c0  ti_sysbios_gates_GateMutex_query__E                                 
c00533c0  ti_sysbios_heaps_HeapMem_Module_GateProxy_query__E                  
c00533e0  ti_sysbios_hal_Hwi_HwiProxy_Object__create__S                       
c0053400  ti_sysbios_hal_Hwi_HwiProxy_delete                                  
c0053420  OEMSysCritOn                                                        
c0053420  ti_sysbios_hal_Hwi_HwiProxy_disable__E                              
c0053440  OEMSysCritOff                                                       
c0053440  ti_sysbios_hal_Hwi_HwiProxy_restore__E                              
c0053460  ti_sysbios_hal_Hwi_Instance_finalize__E                             
c0053480  ti_sysbios_hal_Hwi_Module_startup__E                                
c00534a0  ti_sysbios_hal_Hwi_Params__init__S                                  
c00534c0  ti_sysbios_heaps_HeapBuf_Object__get__S                             
c00534e0  ti_sysbios_heaps_HeapMem_Module_GateProxy_enter__E                  
c0053500  ti_sysbios_heaps_HeapMem_Module_GateProxy_leave__E                  
c0053520  ti_sysbios_heaps_HeapMem_isBlocking__E                              
c0053540  ti_sysbios_knl_Clock_Params__init__S                                
c0053560  ti_sysbios_knl_Clock_TimerProxy_getMaxTicks__E                      
c0053580  ti_sysbios_knl_Clock_getTicks__E                                    
c00535a0  ti_sysbios_knl_Idle_loop__E                                         
c00535c0  ti_sysbios_knl_Queue_Instance_init__E                               
c00535e0  ti_sysbios_knl_Queue_Object__destruct__S                            
c0053600  ti_sysbios_knl_Queue_Object__get__S                                 
c0053620  ti_sysbios_knl_Queue_destruct                                       
c0053640  ti_sysbios_knl_Queue_empty__E                                       
c0053660  ti_sysbios_knl_Semaphore_Instance_finalize__E                       
c0053680  ti_sysbios_knl_Semaphore_Params__init__S                            
c00536a0  ti_sysbios_knl_Semaphore_destruct                                   
c00536c0  ti_sysbios_knl_Semaphore_reset__E                                   
c00536e0  ti_sysbios_knl_Swi_disable__E                                       
c0053700  ti_sysbios_knl_Task_Params__init__S                                 
c0053720  ti_sysbios_knl_Task_disable__E                                      
c0053740  ti_sysbios_knl_Task_getHookContext__E                               
c0053760  ti_sysbios_knl_Task_self__E                                         
c0053780  ti_sysbios_knl_Task_setHookContext__E                               
c00537a0  ti_sysbios_knl_Task_startup__E                                      
c00537c0  ti_sysbios_knl_Clock_TimerProxy_Module__startupDone__S              
c00537c0  ti_sysbios_timers_timer64_Timer_Module__startupDone__F              
c00537c0  ti_sysbios_timers_timer64_Timer_Module__startupDone__S              
c00537e0  ti_sysbios_timers_timer64_Timer_getMaxTicks__E                      
c0053800  vsprintf                                                            
c0053820  xdc_runtime_Error_getMsg__E                                         
c0053840  xdc_runtime_Error_getSite__E                                        
c0053860  xdc_runtime_Error_raiseX__E                                         
c0053880  xdc_runtime_Gate_enterSystem__E                                     
c00538a0  xdc_runtime_Gate_leaveSystem__E                                     
c00538c0  xdc_runtime_Memory_HeapProxy_alloc__E                               
c00538e0  xdc_runtime_Memory_HeapProxy_free__E                                
c0053900  xdc_runtime_LoggerBuf_Module_GateProxy_enter__E                     
c0053920  xdc_runtime_LoggerBuf_Module_GateProxy_leave__E                     
c0053940  xdc_runtime_LoggerBuf_disable__E                                    
c0053960  xdc_runtime_LoggerBuf_enable__E                                     
c0053980  xdc_runtime_LoggerBuf_write1__E                                     
c00539a0  xdc_runtime_LoggerBuf_write2__E                                     
c00539c0  xdc_runtime_Memory_calloc__E                                        
c00539e0  xdc_runtime_Memory_getMaxDefaultTypeAlign__E                        
c0053a00  xdc_runtime_Startup_exec__I                                         
c0053a20  xdc_runtime_Startup_reset__I                                        
c0053a40  xdc_runtime_Startup_rtsDone__E                                      
c0053a60  xdc_runtime_SysStd_exit__E                                          
c0053a60  xdc_runtime_System_SupportProxy_exit__E                             
c0053a80  xdc_runtime_SysStd_putch__E                                         
c0053a80  xdc_runtime_System_SupportProxy_putch__E                            
c0053aa0  xdc_runtime_SysStd_ready__E                                         
c0053aa0  xdc_runtime_System_SupportProxy_ready__E                            
c0053ac0  xdc_runtime_System_Module_GateProxy_enter__E                        
c0053ae0  xdc_runtime_System_Module_GateProxy_leave__E                        
c0053b00  xdc_runtime_System_Module_startup__E                                
c0053b20  xdc_runtime_System_aprintf_va__E                                    
c0053b20  xdc_runtime_System_aprintf_va__F                                    
c0053b40  xdc_runtime_System_printf_va__E                                     
c0053b40  xdc_runtime_System_printf_va__F                                     
c0053b60  xdc_runtime_System_vsnprintf__E                                     
c0053b80  xdc_runtime_Text_visitRope__I                                       
c0053ba0  udps                                                                
c0053bc4  upseudo                                                             
c0053bfc  raweth_pcb                                                          
c00a6700  pit                                                                 
c00a68c0  pitBuffer                                                           
c00b28c0  emac_mcb                                                            
c00b84c8  xdc_runtime_LoggerBuf_Instance_State_0_entryArr__A                  
c00b9328  UartObjects                                                         
c00b94c0  __TI_tmpnams                                                        
c00b97e8  IPV6_LINKLOCALMASK                                                  
c00b97f8  IPV6_MULTICASTMASK                                                  
c00b9808  IPV6_UNSPECIFIED_ADDRESS                                            
c00b9818  IPV6_LOOPBACK_ADDRESS                                               
c00b9828  IPV6_HOST_MASK                                                      
c00b9838  IPV6_ALL_NODES_ADDRESS                                              
c00b9848  IPV6_ALL_ROUTER_ADDRESS                                             
c00b9858  ipv6mcb                                                             
c00b98b0  tcps                                                                
c00b9968  tpseudo                                                             
c00b9974  tcp6_stats                                                          
c00b9ad0  _ICMPIn                                                             
c00b9b20  _ICMPOut                                                            
c00b9b70  BlockMax                                                            
c00b9b90  BlockCount                                                          
c00b9bb0  PageMax                                                             
c00b9bd0  PageCount                                                           
c00b9bec  ips                                                                 
c00b9c54  nimu_mcb                                                            
c00b9cb8  vlan_mcb                                                            
c00b9ce0  udp6_stats                                                          
c00b9d08  Id2Size                                                             
c00b9d24  icmp6stats                                                          
c00b9d54  stkEvent                                                            
c00b9d64  raws                                                                
c00b9d74  raw6_stats                                                          
c00b9d84  raweths                                                             
c00b9d94  PBMQ_free                                                           
c00b9da0  parmbuf                                                             
c00b9da8  uart_stdio                                                          
c00b9db8  ti_sysbios_knl_Task_Instance_State_0_hookEnv__A                     
c00b9dc0  ti_sysbios_knl_Task_Instance_State_1_hookEnv__A                     
c00b9dc8  ti_sysbios_knl_Task_Instance_State_2_hookEnv__A                     
c00b9dd0  ti_sysbios_heaps_HeapMem_Instance_State_0_buf__A                    
c00c1dd0  xdc_runtime_Text_charTab__A                                         
c00c363f  ti_sysbios_timers_timer64_Timer_localTimerBaseId__C                 
c00c42a8  _ctypes_                                                            
c00c44a8  xdc_runtime_Text_nodeTab__A                                         
c00c4cbe  ti_sysbios_family_c64p_Cache_Module__id__C                          
c00c4ea6  ti_sysbios_family_c64p_EventCombiner_Module__id__C                  
c00c4f58  Code2Err                                                            
c00c4ffc  UART_defaultParams                                                  
c00c503c  UART_defaultTransaction                                             
c00c519a  ti_sysbios_family_c64p_Exception_Module__id__C                      
c00c519c  ti_sysbios_knl_Task_Object__PARAMS__C                               
c00c51d8  xdc_runtime_LoggerBuf_Module__FXNS__C                               
c00c52c0  xdc_runtime_Startup_sfxnTab__A                                      
c00c5356  ti_sysbios_family_c64p_Exception_useInternalBuffer__C               
c00c5358  UART_config                                                         
c00c5388  UART_FxnTable_v0                                                    
c00c53b8  ti_sysbios_family_c64p_Hwi_Object__PARAMS__C                        
c00c5444  ti_sysbios_hal_Hwi_Object__PARAMS__C                                
c00c54c0  ti_sysbios_heaps_HeapMem_Module__FXNS__C                            
c00c54e8  xdc_runtime_LoggerBuf_Object__PARAMS__C                             
c00c555c  ti_sysbios_gates_GateHwi_Module__FXNS__C                            
c00c5580  ti_sysbios_gates_GateMutex_Module__FXNS__C                          
c00c55a4  ti_sysbios_heaps_HeapMem_Object__PARAMS__C                          
c00c55c8  ti_sysbios_knl_Clock_Object__PARAMS__C                              
c00c55ec  ti_sysbios_knl_Semaphore_Object__PARAMS__C                          
c00c5630  ti_sysbios_family_c64p_Hwi_Object__DESC__C                          
c00c5650  ti_sysbios_gates_GateHwi_Object__DESC__C                            
c00c5670  ti_sysbios_gates_GateMutex_Object__DESC__C                          
c00c5690  ti_sysbios_hal_Hwi_Object__DESC__C                                  
c00c56b0  ti_sysbios_heaps_HeapMem_Object__DESC__C                            
c00c56d0  ti_sysbios_knl_Clock_Object__DESC__C                                
c00c56f0  ti_sysbios_knl_Queue_Object__DESC__C                                
c00c5710  ti_sysbios_knl_Semaphore_Object__DESC__C                            
c00c5730  ti_sysbios_knl_Task_Object__DESC__C                                 
c00c5750  xdc_runtime_LoggerBuf_Object__DESC__C                               
c00c57ca  ti_sysbios_family_c64p_Hwi_Module__id__C                            
c00c5804  EMAC_FxnTable_v0                                                    
c00c5820  xdc_runtime_Startup_sfxnRts__A                                      
c00c586a  ti_sysbios_family_c64p_Hwi_Module__loggerDefined__C                 
c00c5870  EMAC_config                                                         
c00c5888  ti_sysbios_gates_GateHwi_Object__PARAMS__C                          
c00c58a0  ti_sysbios_gates_GateMutex_Object__PARAMS__C                        
c00c58b8  ti_sysbios_knl_Queue_Object__PARAMS__C                              
c00c58d0  ti_sysbios_knl_Task_hooks__A                                        
c00c5916  ti_sysbios_gates_GateMutex_Module__id__C                            
c00c5978  ti_sysbios_family_c64p_EventCombiner_EVTMASK__C                     
c00c59c4  ti_sysbios_knl_Idle_funcList__C                                     
c00c59cc  ti_sysbios_knl_Task_hooks__C                                        
c00c59d4  ti_sysbios_family_c62_TaskSupport_stackAlignment__C                 
c00c59d8  xdc_runtime_Startup_firstFxns__A                                    
c00c59e0  xdc_runtime_Startup_firstFxns__C                                    
c00c59e8  xdc_runtime_Startup_lastFxns__C                                     
c00c59f0  ti_sysbios_family_c64p_Cache_EMIFA_BASE__C                          
c00c59f4  ti_sysbios_family_c64p_Cache_EMIFA_CFG__C                           
c00c59f8  ti_sysbios_family_c64p_Cache_EMIFA_LENGTH__C                        
c00c59fc  ti_sysbios_family_c64p_Cache_EMIFB_BASE__C                          
c00c5a00  ti_sysbios_family_c64p_Cache_EMIFB_CFG__C                           
c00c5a04  ti_sysbios_family_c64p_Cache_EMIFB_LENGTH__C                        
c00c5a08  ti_sysbios_family_c64p_Cache_EMIFC_BASE__C                          
c00c5a0c  ti_sysbios_family_c64p_Cache_EMIFC_CFG__C                           
c00c5a10  ti_sysbios_family_c64p_Cache_EMIFC_LENGTH__C                        
c00c5a14  ti_sysbios_family_c64p_Cache_E_invalidL1CacheSize__C                
c00c5a18  ti_sysbios_family_c64p_Cache_E_invalidL2CacheSize__C                
c00c5a1c  ti_sysbios_family_c64p_Cache_MAR0_31__C                             
c00c5a20  ti_sysbios_family_c64p_Cache_MAR128_159__C                          
c00c5a24  ti_sysbios_family_c64p_Cache_MAR160_191__C                          
c00c5a28  ti_sysbios_family_c64p_Cache_MAR192_223__C                          
c00c5a2c  ti_sysbios_family_c64p_Cache_MAR224_255__C                          
c00c5a30  ti_sysbios_family_c64p_Cache_MAR32_63__C                            
c00c5a34  ti_sysbios_family_c64p_Cache_MAR64_95__C                            
c00c5a38  ti_sysbios_family_c64p_Cache_MAR96_127__C                           
c00c5a3c  ti_sysbios_family_c64p_EventCombiner_A_invalidEventId__C            
c00c5a40  ti_sysbios_family_c64p_EventCombiner_E_unpluggedEvent__C            
c00c5a44  ti_sysbios_family_c64p_EventCombiner_Module__diagsEnabled__C        
c00c5a48  ti_sysbios_family_c64p_EventCombiner_Module__diagsIncluded__C       
c00c5a4c  ti_sysbios_family_c64p_EventCombiner_Module__diagsMask__C           
c00c5a50  ti_sysbios_family_c64p_Exception_E_exceptionMax__C                  
c00c5a54  ti_sysbios_family_c64p_Exception_exceptionHook__C                   
c00c5a58  ti_sysbios_family_c64p_Exception_externalHook__C                    
c00c5a5c  ti_sysbios_family_c64p_Exception_internalHook__C                    
c00c5a60  ti_sysbios_family_c64p_Exception_nmiHook__C                         
c00c5a64  ti_sysbios_family_c64p_Hwi_E_alreadyDefined__C                      
c00c5a68  ti_sysbios_family_c64p_Hwi_E_handleNotFound__C                      
c00c5a6c  ti_sysbios_family_c64p_Hwi_E_invalidIntNum__C                       
c00c5a70  ti_sysbios_family_c64p_Hwi_LD_end__C                                
c00c5a74  ti_sysbios_family_c64p_Hwi_LM_begin__C                              
c00c5a78  ti_sysbios_family_c64p_Hwi_Module__diagsEnabled__C                  
c00c5a7c  ti_sysbios_family_c64p_Hwi_Module__diagsIncluded__C                 
c00c5a80  ti_sysbios_family_c64p_Hwi_Module__diagsMask__C                     
c00c5a84  ti_sysbios_family_c64p_Hwi_Module__loggerFxn1__C                    
c00c5a88  ti_sysbios_family_c64p_Hwi_Module__loggerFxn8__C                    
c00c5a8c  ti_sysbios_family_c64p_Hwi_Module__loggerObj__C                     
c00c5a90  ti_sysbios_gates_GateMutex_A_badContext__C                          
c00c5a94  ti_sysbios_gates_GateMutex_Instance_State_sem__O                    
c00c5a98  ti_sysbios_gates_GateMutex_Module__diagsEnabled__C                  
c00c5a9c  ti_sysbios_gates_GateMutex_Module__diagsIncluded__C                 
c00c5aa0  ti_sysbios_gates_GateMutex_Module__diagsMask__C                     
c00c5aa4  ti_sysbios_hal_Hwi_E_stackOverflow__C                               
c00c5aa8  ti_sysbios_heaps_HeapBuf_Instance_State_freeList__O                 
c00c5aac  ti_sysbios_heaps_HeapBuf_Object__count__C                           
c00c5ab0  ti_sysbios_heaps_HeapBuf_numConstructedHeaps__C                     
c00c5ab4  ti_sysbios_heaps_HeapMem_A_align__C                                 
c00c5ab8  ti_sysbios_heaps_HeapMem_A_heapSize__C                              
c00c5abc  ti_sysbios_heaps_HeapMem_A_invalidFree__C                           
c00c5ac0  ti_sysbios_heaps_HeapMem_A_zeroBlock__C                             
c00c5ac4  ti_sysbios_heaps_HeapMem_E_memory__C                                
c00c5ac8  ti_sysbios_heaps_HeapMem_Module__diagsEnabled__C                    
c00c5acc  ti_sysbios_heaps_HeapMem_Module__diagsIncluded__C                   
c00c5ad0  ti_sysbios_heaps_HeapMem_Module__diagsMask__C                       
c00c5ad4  ti_sysbios_heaps_HeapMem_Module__gateObj__C                         
c00c5ad8  ti_sysbios_heaps_HeapMem_Object__count__C                           
c00c5adc  ti_sysbios_heaps_HeapMem_reqAlign__C                                
c00c5ae0  ti_sysbios_knl_Clock_A_badThreadType__C                             
c00c5ae4  ti_sysbios_knl_Clock_LM_begin__C                                    
c00c5ae8  ti_sysbios_knl_Clock_LM_tick__C                                     
c00c5aec  ti_sysbios_knl_Clock_LW_delayed__C                                  
c00c5af0  ti_sysbios_knl_Clock_Module_State_clockQ__O                         
c00c5af4  ti_sysbios_knl_Clock_Module__diagsEnabled__C                        
c00c5af8  ti_sysbios_knl_Clock_Module__diagsIncluded__C                       
c00c5afc  ti_sysbios_knl_Clock_Module__diagsMask__C                           
c00c5b00  ti_sysbios_knl_Clock_Module__loggerFxn1__C                          
c00c5b04  ti_sysbios_knl_Clock_Module__loggerFxn2__C                          
c00c5b08  ti_sysbios_knl_Clock_Module__loggerObj__C                           
c00c5b0c  ti_sysbios_knl_Semaphore_A_badContext__C                            
c00c5b10  ti_sysbios_knl_Idle_funcList__A                                     
c00c5b14  ti_sysbios_knl_Semaphore_A_noEvents__C                              
c00c5b18  ti_sysbios_knl_Semaphore_A_overflow__C                              
c00c5b1c  ti_sysbios_knl_Semaphore_A_pendTaskDisabled__C                      
c00c5b20  ti_sysbios_knl_Semaphore_Instance_State_pendQ__O                    
c00c5b24  ti_sysbios_knl_Semaphore_LM_pend__C                                 
c00c5b28  ti_sysbios_knl_Semaphore_LM_post__C                                 
c00c5b2c  ti_sysbios_knl_Semaphore_Module__diagsEnabled__C                    
c00c5b30  ti_sysbios_knl_Semaphore_Module__diagsIncluded__C                   
c00c5b34  ti_sysbios_knl_Semaphore_Module__diagsMask__C                       
c00c5b38  ti_sysbios_knl_Semaphore_Module__loggerFxn2__C                      
c00c5b3c  ti_sysbios_knl_Semaphore_Module__loggerFxn4__C                      
c00c5b40  ti_sysbios_knl_Semaphore_Module__loggerObj__C                       
c00c5b44  ti_sysbios_knl_Swi_LD_end__C                                        
c00c5b48  ti_sysbios_knl_Swi_LM_begin__C                                      
c00c5b4c  ti_sysbios_knl_Swi_LM_post__C                                       
c00c5b50  ti_sysbios_knl_Swi_Module__diagsEnabled__C                          
c00c5b54  ti_sysbios_knl_Swi_Module__diagsIncluded__C                         
c00c5b58  ti_sysbios_knl_Swi_Module__diagsMask__C                             
c00c5b5c  ti_sysbios_knl_Swi_Module__loggerFxn1__C                            
c00c5b60  ti_sysbios_knl_Swi_Module__loggerFxn4__C                            
c00c5b64  ti_sysbios_knl_Swi_Module__loggerObj__C                             
c00c5b68  ti_sysbios_knl_Swi_Object__count__C                                 
c00c5b6c  ti_sysbios_knl_Task_A_badPriority__C                                
c00c5b70  ti_sysbios_knl_Task_A_badTaskState__C                               
c00c5b74  ti_sysbios_knl_Task_A_badThreadType__C                              
c00c5b78  ti_sysbios_knl_Task_A_badTimeout__C                                 
c00c5b7c  ti_sysbios_knl_Task_A_noPendElem__C                                 
c00c5b80  ti_sysbios_knl_Task_A_sleepTaskDisabled__C                          
c00c5b84  ti_sysbios_knl_Task_E_spOutOfBounds__C                              
c00c5b88  ti_sysbios_knl_Task_E_stackOverflow__C                              
c00c5b8c  ti_sysbios_knl_Task_LD_block__C                                     
c00c5b90  ti_sysbios_knl_Task_LD_exit__C                                      
c00c5b94  ti_sysbios_knl_Task_LD_ready__C                                     
c00c5b98  ti_sysbios_knl_Task_LM_setPri__C                                    
c00c5b9c  ti_sysbios_knl_Task_LM_sleep__C                                     
c00c5ba0  ti_sysbios_knl_Task_LM_switch__C                                    
c00c5ba4  ti_sysbios_knl_Task_Module_State_inactiveQ__O                       
c00c5ba8  ti_sysbios_knl_Task_Module__diagsEnabled__C                         
c00c5bac  ti_sysbios_knl_Task_Module__diagsIncluded__C                        
c00c5bb0  ti_sysbios_knl_Task_Module__diagsMask__C                            
c00c5bb4  ti_sysbios_knl_Task_Module__loggerFxn2__C                           
c00c5bb8  ti_sysbios_knl_Task_Module__loggerFxn4__C                           
c00c5bbc  ti_sysbios_knl_Task_Module__loggerObj__C                            
c00c5bc0  ti_sysbios_knl_Task_Object__count__C                                
c00c5bc4  ti_sysbios_knl_Task_Object__heap__C                                 
c00c5bc8  ti_sysbios_knl_Task_allBlockedFunc__C                               
c00c5bcc  ti_sysbios_knl_Task_defaultStackHeap__C                             
c00c5bd0  ti_sysbios_knl_Task_defaultStackSize__C                             
c00c5bd4  ti_sysbios_knl_Task_numConstructedTasks__C                          
c00c5bd8  ti_sysbios_timers_timer64_Timer_A_notAvailable__C                   
c00c5bdc  ti_sysbios_timers_timer64_Timer_E_cannotSupport__C                  
c00c5be0  ti_sysbios_timers_timer64_Timer_Module__diagsEnabled__C             
c00c5be4  ti_sysbios_timers_timer64_Timer_Module__diagsIncluded__C            
c00c5be8  ti_sysbios_timers_timer64_Timer_Module__diagsMask__C                
c00c5bec  ti_sysbios_timers_timer64_Timer_anyMaskHigh__C                      
c00c5bf0  ti_sysbios_timers_timer64_Timer_anyMask__C                          
c00c5bf4  ti_sysbios_timers_timer64_Timer_freqDivisor__C                      
c00c5bf8  ti_sysbios_timers_timer64_Timer_numLocalTimers__C                   
c00c5bfc  ti_sysbios_timers_timer64_Timer_numTimerDevices__C                  
c00c5c00  xdc_runtime_Assert_E_assertFailed__C                                
c00c5c04  xdc_runtime_Core_A_initializedParams__C                             
c00c5c08  xdc_runtime_Core_Module__diagsEnabled__C                            
c00c5c0c  xdc_runtime_Core_Module__diagsIncluded__C                           
c00c5c10  xdc_runtime_Core_Module__diagsMask__C                               
c00c5c14  xdc_runtime_Error_E_memory__C                                       
c00c5c18  xdc_runtime_Error_Module__diagsEnabled__C                           
c00c5c1c  xdc_runtime_Error_Module__diagsIncluded__C                          
c00c5c20  xdc_runtime_Error_Module__diagsMask__C                              
c00c5c24  xdc_runtime_Error_Module__loggerFxn8__C                             
c00c5c28  xdc_runtime_Error_Module__loggerObj__C                              
c00c5c2c  xdc_runtime_Error_policyFxn__C                                      
c00c5c30  xdc_runtime_Error_policy__C                                         
c00c5c34  xdc_runtime_Error_raiseHook__C                                      
c00c5c38  xdc_runtime_IFilterLogger_Interface__BASE__C                        
c00c5c3c  xdc_runtime_IGateProvider_Interface__BASE__C                        
c00c5c40  xdc_runtime_IHeap_Interface__BASE__C                                
c00c5c44  xdc_runtime_ILogger_Interface__BASE__C                              
c00c5c48  xdc_runtime_IModule_Interface__BASE__C                              
c00c5c4c  xdc_runtime_Log_L_error__C                                          
c00c5c50  xdc_runtime_LoggerBuf_E_badLevel__C                                 
c00c5c54  xdc_runtime_LoggerBuf_Module__gateObj__C                            
c00c5c58  xdc_runtime_LoggerBuf_Object__count__C                              
c00c5c5c  xdc_runtime_LoggerBuf_statusLogger__C                               
c00c5c60  xdc_runtime_Memory_defaultHeapInstance__C                           
c00c5c64  xdc_runtime_Startup_execImpl__C                                     
c00c5c68  xdc_runtime_Startup_maxPasses__C                                    
c00c5c6c  xdc_runtime_Startup_sfxnRts__C                                      
c00c5c70  xdc_runtime_Startup_sfxnTab__C                                      
c00c5c74  xdc_runtime_System_Module__gateObj__C                               
c00c5c78  xdc_runtime_System_abortFxn__C                                      
c00c5c7c  xdc_runtime_System_exitFxn__C                                       
c00c5c80  xdc_runtime_System_extendFxn__C                                     
c00c5c84  xdc_runtime_System_maxAtexitHandlers__C                             
c00c5c88  xdc_runtime_Text_charTab__C                                         
c00c5c8c  xdc_runtime_Text_nameEmpty__C                                       
c00c5c90  xdc_runtime_Text_nameStatic__C                                      
c00c5c94  xdc_runtime_Text_nameUnknown__C                                     
c00c5c98  xdc_runtime_Text_nodeTab__C                                         
c00c5c9c  xdc_runtime_Text_visitRopeFxn__C                                    
c00c5ca0  ti_sysbios_hal_Hwi_Module__id__C                                    
c00c5ca2  ti_sysbios_heaps_HeapMem_Module__id__C                              
c00c5ca4  ti_sysbios_knl_Clock_Module__id__C                                  
c00c5ca6  ti_sysbios_knl_Clock_Module__loggerDefined__C                       
c00c5ca8  ti_sysbios_knl_Semaphore_Module__id__C                              
c00c5caa  ti_sysbios_knl_Semaphore_Module__loggerDefined__C                   
c00c5cac  ti_sysbios_knl_Swi_Module__id__C                                    
c00c5cae  ti_sysbios_knl_Swi_Module__loggerDefined__C                         
c00c5cb0  ti_sysbios_knl_Task_Module__id__C                                   
c00c5cb2  ti_sysbios_knl_Task_Module__loggerDefined__C                        
c00c5cb4  ti_sysbios_timers_timer64_Timer_Module__id__C                       
c00c5cb6  ti_sysbios_timers_timer64_Timer_startupNeeded__C                    
c00c5cb8  ti_sysbios_timers_timer64_Timer_useTimer64pRegMap__C                
c00c5cba  xdc_runtime_Core_Module__id__C                                      
c00c5cbc  xdc_runtime_Error_Module__loggerDefined__C                          
c00c5cbe  xdc_runtime_Error_maxDepth__C                                       
c00c5cc0  xdc_runtime_LoggerBuf_Module__id__C                                 
c00c5cc2  xdc_runtime_LoggerBuf_filterByLevel__C                              
c00c5cc4  xdc_runtime_Main_Module__id__C                                      
c00c5cc6  xdc_runtime_Memory_Module__id__C                                    
c00c5cc8  xdc_runtime_Text_charCnt__C                                         
c00c5cca  xdc_runtime_Text_isLoaded__C                                        
c00c5ccc  xdc_runtime_Text_registryModsLastId__C                              
c00c5cce  xdc_runtime_Text_unnamedModsLastId__C                               
c00c5cd0  ti_sysbios_knl_Task_Instance_State_0_stack__A                       
c00c70d0  ti_sysbios_knl_Task_Instance_State_1_stack__A                       
c00c90d0  ti_sysbios_knl_Task_Instance_State_2_stack__A                       
c00c98d0  ti_sysbios_family_c64p_EventCombiner_Module__state__V               
c00c9cd0  _ftable                                                             
c00c9eb0  ti_sysbios_knl_Task_Object__table__V                                
c00c9fa0  uartInitCfg                                                         
c00ca090  _ipcfg                                                              
c00ca144  _lock                                                               
c00ca148  _stream                                                             
c00ca1e8  ti_sysbios_knl_Swi_Module_State_0_readyQ__A                         
c00ca268  ti_sysbios_knl_Task_Module_State_0_readyQ__A                        
c00ca2e8  _device                                                             
c00ca360  ti_sysbios_family_c64p_Hwi_Module__state__V                         
c00ca3cc  _unlock                                                             
c00ca3d0  ti_sysbios_timers_timer64_Timer_Module_State_0_device__A            
c00ca480  ti_sysbios_timers_timer64_Timer_Object__table__V                    
c00ca51e  xdc_runtime_Error_Module__state__V                                  
c00ca520  ti_sysbios_knl_Task_Module__state__V                                
c00ca564  __TI_ft_end                                                         
c00ca6a8  ti_sysbios_gates_GateMutex_Object__table__V                         
c00ca71c  ti_sysbios_family_c64p_Cache_Module__state__V                       
c00ca754  ti_sysbios_family_c64p_Exception_Module__state__V                   
c00ca784  ti_sysbios_family_c64p_primus_TimerSupport_Module__state__V         
c00ca788  ti_sysbios_knl_Swi_Object__table__V                                 
c00ca7b8  ti_sysbios_knl_Clock_Module__state__V                               
c00ca7e4  _oscfg                                                              
c00ca808  ti_sysbios_BIOS_Module__state__V                                    
c00ca82c  ti_sysbios_heaps_HeapBuf_Module__state__V                           
c00ca830  xdc_runtime_LoggerBuf_Object__table__V                              
c00ca854  xdc_runtime_Memory_Module__state__V                                 
c00ca858  pstrMsgName                                                         
c00ca878  ti_sysbios_timers_timer64_Timer_Module_State_0_gctrl__A             
c00ca898  ti_sysbios_timers_timer64_Timer_Module_State_0_handles__A           
c00ca8b8  ti_sysbios_timers_timer64_Timer_Module_State_0_intFreqs__A          
c00ca8d8  xdc_runtime_System_Module_State_0_atexitHandlers__A                 
c00ca8f8  ti_sysbios_knl_Swi_Module__state__V                                 
c00ca948  gOsal_HwAttrs                                                       
c00ca960  ti_sysbios_family_c64p_Hwi_Object__table__V                         
c00ca978  ti_sysbios_heaps_HeapMem_Object__table__V                           
c00ca990  ti_sysbios_timers_timer64_Timer_Module__state__V                    
c00caa04  __TI_cleanup_ptr                                                    
c00caa08  __TI_dtors_ptr                                                      
c00caa0c  __TI_enable_exit_profile_output                                     
c00caa30  NIMUDeviceTable                                                     
c00caa38  ti_sysbios_family_c64p_Hwi_Module__root__V                          
c00caa40  ti_sysbios_family_c64p_primus_TimerSupport_Module_State_0_suspSrc__A
c00caa48  ti_sysbios_gates_GateHwi_Module__root__V                            
c00caa50  ti_sysbios_gates_GateMutex_Module__root__V                          
c00caa58  ti_sysbios_hal_Hwi_Module__root__V                                  
c00caa60  ti_sysbios_hal_Hwi_Object__table__V                                 
c00caa68  ti_sysbios_heaps_HeapMem_Module__root__V                            
c00caa70  ti_sysbios_knl_Clock_Module__root__V                                
c00caa78  ti_sysbios_knl_Queue_Module__root__V                                
c00caa80  ti_sysbios_knl_Semaphore_Module__root__V                            
c00caa88  ti_sysbios_knl_Task_Module__root__V                                 
c00caa90  xdc_runtime_LoggerBuf_Module__root__V                               
c00caa98  xdc_runtime_Registry_Module__state__V                               
c00caaa0  xdc_runtime_Startup_Module__state__V                                
c00caaa8  xdc_runtime_System_Module__state__V                                 
c00caabe  xdc_runtime_LoggerBuf_Module__state__V                              
c00caac8  ti_sysbios_gates_GateHwi_Object__table__V                           
c00caad0  ti_sysbios_knl_Task_Module_State_0_idleTask__A                      
c00caad8  printlog                                                            
c00cb4d8  DebugLog                                                            
c00cbad8  _stack                                                              
c00ccad8  __TI_STACK_END                                                      
c00cce90  __TI_STATIC_BASE                                                    
c00ccea8  _IGMPInDiscard                                                      
c00cceac  _IGMPInQuery                                                        
c00cceb0  _IGMPInQueryGroup                                                   
c00cceb4  _IGMPInResponse                                                     
c00cceb8  _IGMPOutResponse                                                    
c00ccef0  CONTENT_TYPE_APPLET                                                 
c00ccef4  CONTENT_TYPE_AU                                                     
c00ccef8  CONTENT_TYPE_CSS                                                    
c00ccefc  CONTENT_TYPE_DOC                                                    
c00ccf00  CONTENT_TYPE_GIF                                                    
c00ccf04  CONTENT_TYPE_HTML                                                   
c00ccf08  CONTENT_TYPE_JPG                                                    
c00ccf0c  CONTENT_TYPE_MPEG                                                   
c00ccf10  CONTENT_TYPE_PDF                                                    
c00ccf14  CONTENT_TYPE_WAV                                                    
c00ccf18  CONTENT_TYPE_ZIP                                                    
c00ccf1c  CONTENT_TYPE                                                        
c00ccf20  CONTENT_LENGTH                                                      
c00ccf24  CRLF                                                                
c00ccf28  DEFAULT_NAME                                                        
c00ccf2c  HTTP_VER                                                            
c00ccf30  SPACE                                                               
c00ccf34  PITCount                                                            
c00ccf38  PITUsed                                                             
c00ccf3c  PITHigh                                                             
c00ccf58  VerStr                                                              
c00ccf5c  HostName                                                            
c00ccf60  LocalIPAddr                                                         
c00ccf64  LocalIPMask                                                         
c00ccf68  GatewayIP                                                           
c00ccf6c  DomainName                                                          
c00ccf70  DNSServer                                                           
c00ccfe8  _IGMPForceVersion1                                                  
c00cd004  DebugLogSize                                                        
c00cd008  DebugCritError                                                      
c00cd014  _ICMPInErrors                                                       
c00cd018  _ICMPOutErrors                                                      
c00cd01c  _IPExecuting                                                        
c00cd02c  gFragQList                                                          
c00cd04c  tcp_iss                                                             
c00cd050  ptTimeFirst                                                         
c00cd054  pt6TimeFirst                                                        
c00cd058  tcp6_iss                                                            
c00cd070  httpErrorResponseHook                                               
c00cd080  _IPReasmPtr                                                         
c00cd088  gMLDNodeList                                                        
c00cd0a4  IPV6_MAX_MULTICAST_SOLICIT                                          
c00cd0a8  IPV6_MAX_UNICAST_SOLICIT                                            
c00cd0ac  IPV6_RETRANS_TIME                                                   
c00cd0b0  IPV6_DELAY_FIRST_PROBE_TIME                                         
c00cd0b4  IPV6_REACHABLE_TIME                                                 
c00cd0b8  IPV6_MAX_RTR_SOLICITATION_DELAY                                     
c00cd0bc  IPV6_RTR_SOLICITATION_INTERVAL                                      
c00cd0c0  IPV6_MAX_RTR_SOLICITATIONS                                          
c00cd0c4  INFINITE_LT                                                         
c00cd100  emac_comm_dev0                                                      
c00cd280  emac_comm_pcb0                                                      
c00cd298  __CIOBUF_                                                           
c00cd400  ti_sysbios_family_c64p_Hwi0                                         
c00cd400  ti_sysbios_family_c64p_Hwi_int0                                     
c00cd420  ti_sysbios_family_c64p_Hwi_int1                                     
c00cd440  ti_sysbios_family_c64p_Hwi_int2                                     
c00cd460  ti_sysbios_family_c64p_Hwi_int3                                     
c00cd480  ti_sysbios_family_c64p_Hwi_int4                                     
c00cd4a0  ti_sysbios_family_c64p_Hwi_int5                                     
c00cd4c0  ti_sysbios_family_c64p_Hwi_int6                                     
c00cd4e0  ti_sysbios_family_c64p_Hwi_int7                                     
c00cd500  ti_sysbios_family_c64p_Hwi_int8                                     
c00cd520  ti_sysbios_family_c64p_Hwi_int9                                     
c00cd540  ti_sysbios_family_c64p_Hwi_int10                                    
c00cd560  ti_sysbios_family_c64p_Hwi_int11                                    
c00cd580  ti_sysbios_family_c64p_Hwi_int12                                    
c00cd5a0  ti_sysbios_family_c64p_Hwi_int13                                    
c00cd5c0  ti_sysbios_family_c64p_Hwi_int14                                    
c00cd5e0  ti_sysbios_family_c64p_Hwi_int15                                    
c00ce28c  __TI_Handler_Table_Base                                             
c00ce294  __TI_Handler_Table_Limit                                            
c00ce298  __TI_CINIT_Base                                                     
c00ce2f0  __TI_CINIT_Limit                                                    
ffffffff  __TI_pprof_out_hndl                                                 
ffffffff  __TI_prof_data_size                                                 
ffffffff  __TI_prof_data_start                                                
ffffffff  __binit__                                                           
ffffffff  __c_args__                                                          
ffffffff  binit                                                               
UNDEFED   __TI_INITARRAY_Base                                                 
UNDEFED   __TI_INITARRAY_Limit                                                
UNDEFED   __TI_TLS_INIT_Base                                                  
UNDEFED   __TI_TLS_INIT_Limit                                                 

[1449 symbols]
